cOrange.classification.tree
TreeClassifier
p1
(tRp2
(dp3
S'descender'
p4
cOrange.classification.tree
Descender_UnknownMergeAsSelector
p5
(tRp6
(dbsS'computes_probabilities'
p7
I0
sS'tree'
p8
cOrange.classification.tree
Node
p9
(tRp10
(dp11
S'branch_selector'
p12
cOrange.classification
ClassifierFromVarFD
p13
(tRp14
(dp15
S'transformer'
p16
Nsg7
I0
sS'domain'
p17
cOrange.orange
__pickleLoaderDomain
p18
(cOrange.data
Domain
p19
cOrange.core
VarList
p20
(tRp21
cOrange.orange
__pickleLoaderEnumVariable
p22
(cOrange.feature
Discrete
p23
(dp24
S'source_variable'
p25
NsS'ordered'
p26
I0
sS'name'
p27
S'bothCommentAndArchive'
p28
sS'var_type'
p29
I1
sS'random_generator'
p30
NsS'distributed'
p31
I0
sS'values'
p32
cOrange.core
StringList
p33
(tRp34
S'FALSE'
aS'TRUE'
a(dbsS'default_meta_id'
p35
I0
sS'base_value'
p36
I-1
stRp37
(dp38
S'get_value_from'
p39
Nsbag22
(g23
(dp40
g25
Nsg26
I0
sS'name'
p41
S'bothDisandKeyInMeta'
p42
sg29
I1
sg30
Nsg31
I0
sg32
g33
(tRp43
S'FALSE'
aS'TRUE'
a(dbsg35
I0
sg36
I-1
stRp44
(dp45
g39
NsbacOrange.orange
__pickleLoaderVariable
p46
(cOrange.feature
Continuous
p47
(dp48
g25
Nsg26
I1
sg29
I2
sS'scientific_format'
p49
I0
sg30
Nsg31
I0
sS'number_of_decimals'
p50
I0
sS'end_value'
p51
F0
sS'step_value'
p52
F-1
sg35
I0
sS'start_value'
p53
F-1
sS'adjust_decimals'
p54
I1
sS'name'
p55
S'divCount'
p56
stRp57
(dp58
g39
Nsbag46
(g47
(dp59
g25
Nsg26
I1
sg29
I2
sg49
I0
sg30
Nsg31
I0
sg50
I0
sg51
F0
sg52
F-1
sg35
I0
sg53
F-1
sg54
I1
sS'name'
p60
S'externalLinks'
p61
stRp62
(dp63
g39
Nsbag46
(g47
(dp64
g25
Nsg26
I1
sg29
I2
sg49
I0
sg30
Nsg31
I0
sg50
I0
sg51
F0
sg52
F-1
sg35
I0
sg53
F-1
sg54
I1
sS'name'
p65
S'forumFreqWordCount'
p66
stRp67
(dp68
g39
Nsbag22
(g23
(dp69
g25
Nsg26
I0
sS'name'
p70
S'hasBlogWordInMetaData'
p71
sg29
I1
sg30
Nsg31
I0
sg32
g33
(tRp72
S'FALSE'
aS'TRUE'
a(dbsg35
I0
sg36
I-1
stRp73
(dp74
g39
Nsbag22
(g23
(dp75
g25
Nsg26
I0
sS'name'
p76
S'hasBlogWordInURL'
p77
sg29
I1
sg30
Nsg31
I0
sg32
g33
(tRp78
S'FALSE'
aS'TRUE'
a(dbsg35
I0
sg36
I-1
stRp79
(dp80
g39
Nsbag22
(g23
(dp81
g25
Nsg26
I0
sS'name'
p82
S'hasCommentBox'
p83
sg29
I1
sg30
Nsg31
I0
sg32
g33
(tRp84
S'FALSE'
aS'TRUE'
a(dbsg35
I0
sg36
I-1
stRp85
(dp86
g39
Nsbag22
(g23
(dp87
g25
Nsg26
I0
sS'name'
p88
S'hasFeed'
p89
sg29
I1
sg30
Nsg31
I0
sg32
g33
(tRp90
S'FALSE'
aS'TRUE'
a(dbsg35
I0
sg36
I-1
stRp91
(dp92
g39
Nsbag22
(g23
(dp93
g25
Nsg26
I0
sS'name'
p94
S'hasForumWordInMetaData'
p95
sg29
I1
sg30
Nsg31
I0
sg32
g33
(tRp96
S'FALSE'
aS'TRUE'
a(dbsg35
I0
sg36
I-1
stRp97
(dp98
g39
Nsbag22
(g23
(dp99
g25
Nsg26
I0
sS'name'
p100
S'hasForumWordInURL'
p101
sg29
I1
sg30
Nsg31
I0
sg32
g33
(tRp102
S'FALSE'
aS'TRUE'
a(dbsg35
I0
sg36
I-1
stRp103
(dp104
g39
Nsbag22
(g23
(dp105
g25
Nsg26
I0
sS'name'
p106
S'hasMetaDis'
p107
sg29
I1
sg30
Nsg31
I0
sg32
g33
(tRp108
S'FALSE'
aS'TRUE'
a(dbsg35
I0
sg36
I-1
stRp109
(dp110
g39
Nsbag22
(g23
(dp111
g25
Nsg26
I0
sS'name'
p112
S'hasMetaKeywords'
p113
sg29
I1
sg30
Nsg31
I0
sg32
g33
(tRp114
S'FALSE'
aS'TRUE'
a(dbsg35
I0
sg36
I-1
stRp115
(dp116
g39
Nsbag22
(g23
(dp117
g25
Nsg26
I0
sS'name'
p118
S'hasPostsArchive'
p119
sg29
I1
sg30
Nsg31
I0
sg32
g33
(tRp120
S'FALSE'
aS'TRUE'
a(dbsg35
I0
sg36
I-1
stRp121
(dp122
g39
Nsbag46
(g47
(dp123
g25
Nsg26
I1
sg29
I2
sg49
I0
sg30
Nsg31
I0
sg50
I0
sg51
F0
sg52
F-1
sg35
I0
sg53
F-1
sg54
I1
sS'name'
p124
S'imgCount'
p125
stRp126
(dp127
g39
Nsbag46
(g47
(dp128
g25
Nsg26
I1
sg29
I2
sg49
I0
sg30
Nsg31
I0
sg50
I2
sg51
F0
sg52
F-1
sg35
I0
sg53
F-1
sg54
I1
sS'name'
p129
S'imgToParaRatio'
p130
stRp131
(dp132
g39
Nsbag46
(g47
(dp133
g25
Nsg26
I1
sg29
I2
sg49
I0
sg30
Nsg31
I0
sg50
I2
sg51
F0
sg52
F-1
sg35
I0
sg53
F-1
sg54
I1
sS'name'
p134
S'intLinkToExtLinkRatio'
p135
stRp136
(dp137
g39
Nsbag46
(g47
(dp138
g25
Nsg26
I1
sg29
I2
sg49
I0
sg30
Nsg31
I0
sg50
I0
sg51
F0
sg52
F-1
sg35
I0
sg53
F-1
sg54
I1
sS'name'
p139
S'internalLinks'
p140
stRp141
(dp142
g39
Nsbag46
(g47
(dp143
g25
Nsg26
I1
sg29
I2
sg49
I0
sg30
Nsg31
I0
sg50
I2
sg51
F0
sg52
F-1
sg35
I0
sg53
F-1
sg54
I1
sS'name'
p144
S'itemToListRatio'
p145
stRp146
(dp147
g39
Nsbag46
(g47
(dp148
g25
Nsg26
I1
sg29
I2
sg49
I0
sg30
Nsg31
I0
sg50
I0
sg51
F0
sg52
F-1
sg35
I0
sg53
F-1
sg54
I1
sS'name'
p149
S'largeImgCount'
p150
stRp151
(dp152
g39
Nsbag46
(g47
(dp153
g25
Nsg26
I1
sg29
I2
sg49
I0
sg30
Nsg31
I0
sg50
I0
sg51
F0
sg52
F-1
sg35
I0
sg53
F-1
sg54
I1
sS'name'
p154
S'listCount'
p155
stRp156
(dp157
g39
Nsbag46
(g47
(dp158
g25
Nsg26
I1
sg29
I2
sg49
I0
sg30
Nsg31
I0
sg50
I0
sg51
F0
sg52
F-1
sg35
I0
sg53
F-1
sg54
I1
sS'name'
p159
S'listItemCount'
p160
stRp161
(dp162
g39
Nsbag46
(g47
(dp163
g25
Nsg26
I1
sg29
I2
sg49
I0
sg30
Nsg31
I0
sg50
I0
sg51
F0
sg52
F-1
sg35
I0
sg53
F-1
sg54
I1
sS'name'
p164
S'orgFreqWordCount'
p165
stRp166
(dp167
g39
Nsbag46
(g47
(dp168
g25
Nsg26
I1
sg29
I2
sg49
I0
sg30
Nsg31
I0
sg50
I0
sg51
F0
sg52
F-1
sg35
I0
sg53
F-1
sg54
I1
sS'name'
p169
S'paraCount'
p170
stRp171
(dp172
g39
Nsbag46
(g47
(dp173
g25
Nsg26
I1
sg29
I2
sg49
I0
sg30
Nsg31
I0
sg50
I0
sg51
F0
sg52
F-1
sg35
I0
sg53
F-1
sg54
I1
sS'name'
p174
S'rowCount'
p175
stRp176
(dp177
g39
Nsbag46
(g47
(dp178
g25
Nsg26
I1
sg29
I2
sg49
I0
sg30
Nsg31
I0
sg50
I2
sg51
F0
sg52
F-1
sg35
I0
sg53
F-1
sg54
I1
sS'name'
p179
S'rowToTableRatio'
p180
stRp181
(dp182
g39
Nsbag46
(g47
(dp183
g25
Nsg26
I1
sg29
I2
sg49
I0
sg30
Nsg31
I0
sg50
I0
sg51
F0
sg52
F-1
sg35
I0
sg53
F-1
sg54
I1
sS'name'
p184
S'smallParaCount'
p185
stRp186
(dp187
g39
Nsbag46
(g47
(dp188
g25
Nsg26
I1
sg29
I2
sg49
I0
sg30
Nsg31
I0
sg50
I0
sg51
F0
sg52
F-1
sg35
I0
sg53
F-1
sg54
I1
sS'name'
p189
S'tableCount'
p190
stRp191
(dp192
g39
Nsbag46
(g47
(dp193
g25
Nsg26
I1
sg29
I2
sg49
I0
sg30
Nsg31
I0
sg50
I0
sg51
F0
sg52
F-1
sg35
I0
sg53
F-1
sg54
I1
sS'name'
p194
S'totLinks'
p195
stRp196
(dp197
g39
Nsbag46
(g47
(dp198
g25
Nsg26
I1
sg29
I2
sg49
I0
sg30
Nsg31
I0
sg50
I0
sg51
F0
sg52
F-1
sg35
I0
sg53
F-1
sg54
I1
sS'name'
p199
S'wordCount'
p200
stRp201
(dp202
g39
Nsbag46
(g47
(dp203
g25
Nsg26
I1
sg29
I2
sg49
I0
sg30
Nsg31
I0
sg50
I2
sg51
F0
sg52
F-1
sg35
I0
sg53
F-1
sg54
I1
sS'name'
p204
S'wordToParaRatio'
p205
stRp206
(dp207
g39
Nsba(dbg22
(g23
(dp208
g25
Nsg26
I0
sS'name'
p209
S'type'
p210
sg29
I1
sg30
Nsg31
I0
sg32
g33
(tRp211
S'Blogs'
aS'forum'
aS'orgsite'
a(dbsg35
I0
sg36
I-1
stRp212
(dp213
g39
Nsbg20
(tRp214
(db(d(dtRp215
(dbsS'class_var'
p216
g103
sS'transform_unknowns'
p217
I0
sS'position'
p218
I10
sS'distribution_for_unknown'
p219
cOrange.orange
__pickleLoaderDiscDistribution
p220
(cOrange.statistics.distribution
Discrete
p221
S'\x02\x00\x00\x00\x00@*D\x00\x002C'
tRp222
(dp223
g30
NsS'variances'
p224
NsS'unknowns'
p225
F0
sS'abs'
p226
F859
sS'normalized'
p227
I0
sS'variable'
p228
g103
sS'cases'
p229
F859
sbsbsS'branches'
p230
cOrange.classification.tree
NodeList
p231
(tRp232
g9
(tRp233
(dp234
g12
g13
(tRp235
(dp236
g16
Nsg7
I0
sg17
g215
sg216
g91
sg217
I0
sg218
I8
sg219
g220
(g221
S'\x02\x00\x00\x00\x00\x80\x9eC\x00\x00\xb6C'
tRp237
(dp238
g30
Nsg224
Nsg225
F0
sg226
F681
sg227
I0
sg228
g91
sg229
F681
sbsbsg230
g231
(tRp239
g9
(tRp240
(dp241
g12
g13
(tRp242
(dp243
g16
Nsg7
I0
sg17
g215
sg216
g97
sg217
I0
sg218
I9
sg219
g220
(g221
S'\x02\x00\x00\x00\x00\x80\x9bC\x00\x00\xc0@'
tRp244
(dp245
g30
Nsg224
Nsg225
F0
sg226
F317
sg227
I0
sg228
g97
sg229
F317
sbsbsg230
g231
(tRp246
g9
(tRp247
(dp248
g12
g13
(tRp249
(dp250
g16
cOrange.feature.discretization
ThresholdDiscretizer
p251
(tRp252
(dp253
S'threshold'
p254
F110
sS'sub_transform'
p255
Nsbsg7
I0
sg17
g215
sg216
g22
(g23
(dp256
g25
Nsg26
I0
sS'name'
p257
S'intLinkToExtLinkRatio'
p258
sg29
I1
sg30
Nsg31
I0
sg32
g33
(tRp259
S'0'
aS'1'
a(dbsg35
I0
sg36
I-1
stRp260
(dp261
g39
Nsbsg217
I0
sg218
I16
sg219
g220
(g221
S'\x02\x00\x00\x00\x00\x00\x9aC\x00\x00@@'
tRp262
(dp263
g30
Nsg224
Nsg225
F0
sg226
F311
sg227
I0
sg228
g260
sg229
F311
sbsbsg230
g231
(tRp264
g9
(tRp265
(dp266
g12
g13
(tRp267
(dp268
g16
g251
(tRp269
(dp270
g254
F46.5
sg255
Nsbsg7
I0
sg17
g215
sg216
g22
(g23
(dp271
g25
Nsg26
I0
sS'name'
p272
S'forumFreqWordCount'
p273
sg29
I1
sg30
Nsg31
I0
sg32
g33
(tRp274
S'0'
aS'1'
a(dbsg35
I0
sg36
I-1
stRp275
(dp276
g39
Nsbsg217
I0
sg218
I4
sg219
g220
(g221
S'\x02\x00\x00\x00\x00\x80\x99C\x00\x00\x80?'
tRp277
(dp278
g30
Nsg224
Nsg225
F0
sg226
F308
sg227
I0
sg228
g275
sg229
F308
sbsbsg230
g231
(tRp279
g9
(tRp280
(dp281
g12
g13
(tRp282
(dp283
g16
Nsg7
I0
sg17
g215
sg216
g79
sg217
I0
sg218
I6
sg219
g220
(g221
S'\x02\x00\x00\x00\x00\x00\x95C\x00\x00\x10A'
tRp284
(dp285
g30
Nsg224
Nsg225
F0
sg226
F307
sg227
I0
sg228
g79
sg229
F307
sbsbsg230
g231
(tRp286
g9
(tRp287
(dp288
g12
g13
(tRp289
(dp290
g16
g251
(tRp291
(dp292
g254
F35
sg255
Nsbsg7
I0
sg17
g215
sg216
g22
(g23
(dp293
g25
Nsg26
I0
sS'name'
p294
S'paraCount'
p295
sg29
I1
sg30
Nsg31
I0
sg32
g33
(tRp296
S'0'
aS'1'
a(dbsg35
I0
sg36
I-1
stRp297
(dp298
g39
Nsbsg217
I0
sg218
I23
sg219
g220
(g221
S'\x02\x00\x00\x00\x00\x80\x91C\x00\x00\xe0@'
tRp299
(dp300
g30
Nsg224
Nsg225
F0
sg226
F298
sg227
I0
sg228
g297
sg229
F298
sbsbsg230
g231
(tRp301
g9
(tRp302
(dp303
g12
g13
(tRp304
(dp305
g16
Nsg7
I0
sg17
g215
sg216
g37
sg217
I0
sg218
I0
sg219
g220
(g221
S'\x02\x00\x00\x00\x00\x80\x90C\x00\x00\x00@'
tRp306
(dp307
g30
Nsg224
Nsg225
F0
sg226
F291
sg227
I0
sg228
g37
sg229
F291
sbsbsg230
g231
(tRp308
g9
(tRp309
(dp310
g12
g13
(tRp311
(dp312
g16
g251
(tRp313
(dp314
g254
F14.75
sg255
Nsbsg7
I0
sg17
g215
sg216
g22
(g23
(dp315
g25
Nsg26
I0
sS'name'
p316
S'imgToParaRatio'
p317
sg29
I1
sg30
Nsg31
I0
sg32
g33
(tRp318
S'0'
aS'1'
a(dbsg35
I0
sg36
I-1
stRp319
(dp320
g39
Nsbsg217
I0
sg218
I15
sg219
g220
(g221
S'\x02\x00\x00\x00\x00\x00\x90C\x00\x00\x80?'
tRp321
(dp322
g30
Nsg224
Nsg225
F0
sg226
F289
sg227
I0
sg228
g319
sg229
F289
sbsbsg230
g231
(tRp323
g9
(tRp324
(dp325
g12
g13
(tRp326
(dp327
g16
g251
(tRp328
(dp329
g254
F4.5
sg255
Nsbsg7
I0
sg17
g215
sg216
g22
(g23
(dp330
g25
Nsg26
I0
sS'name'
p331
S'forumFreqWordCount'
p332
sg29
I1
sg30
Nsg31
I0
sg32
g33
(tRp333
S'0'
aS'1'
a(dbsg35
I0
sg36
I-1
stRp334
(dp335
g39
Nsbsg217
I0
sg218
I4
sg219
g220
(g221
S'\x02\x00\x00\x00\x00\x80\x8eC\x00\x00@@'
tRp336
(dp337
g30
Nsg224
Nsg225
F0
sg226
F288
sg227
I0
sg228
g334
sg229
F288
sbsbsg230
g231
(tRp338
g9
(tRp339
(dp340
g12
g13
(tRp341
(dp342
g16
g251
(tRp343
(dp344
g254
F70.5
sg255
Nsbsg7
I0
sg17
g215
sg216
g22
(g23
(dp345
g25
Nsg26
I0
sS'name'
p346
S'smallParaCount'
p347
sg29
I1
sg30
Nsg31
I0
sg32
g33
(tRp348
S'0'
aS'1'
a(dbsg35
I0
sg36
I-1
stRp349
(dp350
g39
Nsbsg217
I0
sg218
I26
sg219
g220
(g221
S'\x02\x00\x00\x00\x00\x80\x8cC\x00\x00\x80@'
tRp351
(dp352
g30
Nsg224
Nsg225
F0
sg226
F285
sg227
I0
sg228
g349
sg229
F285
sbsbsg230
g231
(tRp353
g9
(tRp354
(dp355
g12
g13
(tRp356
(dp357
g16
g251
(tRp358
(dp359
g254
F2.5
sg255
Nsbsg7
I0
sg17
g215
sg216
g22
(g23
(dp360
g25
Nsg26
I0
sS'name'
p361
S'orgFreqWordCount'
p362
sg29
I1
sg30
Nsg31
I0
sg32
g33
(tRp363
S'0'
aS'1'
a(dbsg35
I0
sg36
I-1
stRp364
(dp365
g39
Nsbsg217
I0
sg218
I22
sg219
g220
(g221
S'\x02\x00\x00\x00\x00\x00\x12C\x00\x00\x07C'
tRp366
(dp367
g30
Nsg224
Nsg225
F0
sg226
F281
sg227
I0
sg228
g364
sg229
F281
sbsbsg230
g231
(tRp368
g9
(tRp369
(dp370
g12
g13
(tRp371
(dp372
g16
g251
(tRp373
(dp374
g254
F9.5
sg255
Nsbsg7
I0
sg17
g215
sg216
g22
(g23
(dp375
g25
Nsg26
I0
sS'name'
p376
S'paraCount'
p377
sg29
I1
sg30
Nsg31
I0
sg32
g33
(tRp378
S'0'
aS'1'
a(dbsg35
I0
sg36
I-1
stRp379
(dp380
g39
Nsbsg217
I0
sg218
I23
sg219
g220
(g221
S'\x02\x00\x00\x00\x00\x00\rC\x00\x00\xa0@'
tRp381
(dp382
g30
Nsg224
Nsg225
F0
sg226
F146
sg227
I0
sg228
g379
sg229
F146
sbsbsg230
g231
(tRp383
g9
(tRp384
(dp385
g12
g13
(tRp386
(dp387
g16
g251
(tRp388
(dp389
g254
F1.5
sg255
Nsbsg7
I0
sg17
g215
sg216
g22
(g23
(dp390
g25
Nsg26
I0
sS'name'
p391
S'forumFreqWordCount'
p392
sg29
I1
sg30
Nsg31
I0
sg32
g33
(tRp393
S'0'
aS'1'
a(dbsg35
I0
sg36
I-1
stRp394
(dp395
g39
Nsbsg217
I0
sg218
I4
sg219
g220
(g221
S'\x02\x00\x00\x00\x00\x00\x08C\x00\x00\xa0@'
tRp396
(dp397
g30
Nsg224
Nsg225
F0
sg226
F141
sg227
I0
sg228
g394
sg229
F141
sbsbsg230
g231
(tRp398
g9
(tRp399
(dp400
g12
g13
(tRp401
(dp402
g16
g251
(tRp403
(dp404
g254
F0.5
sg255
Nsbsg7
I0
sg17
g215
sg216
g22
(g23
(dp405
g25
Nsg26
I0
sS'name'
p406
S'forumFreqWordCount'
p407
sg29
I1
sg30
Nsg31
I0
sg32
g33
(tRp408
S'0'
aS'1'
a(dbsg35
I0
sg36
I-1
stRp409
(dp410
g39
Nsbsg217
I0
sg218
I4
sg219
g220
(g221
S'\x02\x00\x00\x00\x00\x00\x04C\x00\x00\x80@'
tRp411
(dp412
g30
Nsg224
Nsg225
F0
sg226
F136
sg227
I0
sg228
g409
sg229
F136
sbsbsg230
g231
(tRp413
g9
(tRp414
(dp415
g12
g13
(tRp416
(dp417
g16
g251
(tRp418
(dp419
g254
F24
sg255
Nsbsg7
I0
sg17
g215
sg216
g22
(g23
(dp420
g25
Nsg26
I0
sS'name'
p421
S'externalLinks'
p422
sg29
I1
sg30
Nsg31
I0
sg32
g33
(tRp423
S'0'
aS'1'
a(dbsg35
I0
sg36
I-1
stRp424
(dp425
g39
Nsbsg217
I0
sg218
I3
sg219
g220
(g221
S'\x02\x00\x00\x00\x00\x00\xf0B\x00\x00@A'
tRp426
(dp427
g30
Nsg224
Nsg225
F0
sg226
F132
sg227
I0
sg228
g424
sg229
F132
sbsbsg230
g231
(tRp428
g9
(tRp429
(dp430
g12
g13
(tRp431
(dp432
g16
g251
(tRp433
(dp434
g254
F1.7699999809265137
sg255
Nsbsg7
I0
sg17
g215
sg216
g22
(g23
(dp435
g25
Nsg26
I0
sS'name'
p436
S'rowToTableRatio'
p437
sg29
I1
sg30
Nsg31
I0
sg32
g33
(tRp438
S'0'
aS'1'
a(dbsg35
I0
sg36
I-1
stRp439
(dp440
g39
Nsbsg217
I0
sg218
I25
sg219
g220
(g221
S'\x02\x00\x00\x00\x00\x00\xb0B\x00\x00\x00B'
tRp441
(dp442
g30
Nsg224
Nsg225
F0
sg226
F120
sg227
I0
sg228
g439
sg229
F120
sbsbsg230
g231
(tRp443
g9
(tRp444
(dp445
g12
g13
(tRp446
(dp447
g16
g251
(tRp448
(dp449
g254
F7.5799999237060547
sg255
Nsbsg7
I0
sg17
g215
sg216
g22
(g23
(dp450
g25
Nsg26
I0
sS'name'
p451
S'intLinkToExtLinkRatio'
p452
sg29
I1
sg30
Nsg31
I0
sg32
g33
(tRp453
S'0'
aS'1'
a(dbsg35
I0
sg36
I-1
stRp454
(dp455
g39
Nsbsg217
I0
sg218
I16
sg219
g220
(g221
S'\x02\x00\x00\x00\x00\x00\x90B\x00\x00\x80A'
tRp456
(dp457
g30
Nsg224
Nsg225
F0
sg226
F88
sg227
I0
sg228
g454
sg229
F88
sbsbsg230
g231
(tRp458
g9
(tRp459
(dp460
g12
g13
(tRp461
(dp462
g16
g251
(tRp463
(dp464
g254
F94.5
sg255
Nsbsg7
I0
sg17
g215
sg216
g22
(g23
(dp465
g25
Nsg26
I0
sS'name'
p466
S'listItemCount'
p467
sg29
I1
sg30
Nsg31
I0
sg32
g33
(tRp468
S'0'
aS'1'
a(dbsg35
I0
sg36
I-1
stRp469
(dp470
g39
Nsbsg217
I0
sg218
I21
sg219
g220
(g221
S'\x02\x00\x00\x00\x00\x00\x8eB\x00\x00\x80?'
tRp471
(dp472
g30
Nsg224
Nsg225
F0
sg226
F72
sg227
I0
sg228
g469
sg229
F72
sbsbsg230
g231
(tRp473
g9
(tRp474
(dp475
g12
g13
(tRp476
(dp477
g16
g251
(tRp478
(dp479
g254
F25
sg255
Nsbsg7
I0
sg17
g215
sg216
g22
(g23
(dp480
g25
Nsg26
I0
sS'name'
p481
S'imgCount'
p482
sg29
I1
sg30
Nsg31
I0
sg32
g33
(tRp483
S'0'
aS'1'
a(dbsg35
I0
sg36
I-1
stRp484
(dp485
g39
Nsbsg217
I0
sg218
I14
sg219
g220
(g221
S'\x02\x00\x00\x00\x00\x00\x8cB\x00\x00\x80?'
tRp486
(dp487
g30
Nsg224
Nsg225
F0
sg226
F71
sg227
I0
sg228
g484
sg229
F71
sbsbsg230
g231
(tRp488
g9
(tRp489
(dp490
g12
g13
(tRp491
(dp492
g16
g251
(tRp493
(dp494
g254
F20.5
sg255
Nsbsg7
I0
sg17
g215
sg216
g22
(g23
(dp495
g25
Nsg26
I0
sS'name'
p496
S'externalLinks'
p497
sg29
I1
sg30
Nsg31
I0
sg32
g33
(tRp498
S'0'
aS'1'
a(dbsg35
I0
sg36
I-1
stRp499
(dp500
g39
Nsbsg217
I0
sg218
I3
sg219
g220
(g221
S'\x02\x00\x00\x00\x00\x00\x8aB\x00\x00\x80?'
tRp501
(dp502
g30
Nsg224
Nsg225
F0
sg226
F70
sg227
I0
sg228
g499
sg229
F70
sbsbsg230
g231
(tRp503
g9
(tRp504
(dp505
g12
g13
(tRp506
(dp507
g16
g251
(tRp508
(dp509
g254
F6.8499999046325684
sg255
Nsbsg7
I0
sg17
g215
sg216
g22
(g23
(dp510
g25
Nsg26
I0
sS'name'
p511
S'intLinkToExtLinkRatio'
p512
sg29
I1
sg30
Nsg31
I0
sg32
g33
(tRp513
S'0'
aS'1'
a(dbsg35
I0
sg36
I-1
stRp514
(dp515
g39
Nsbsg217
I0
sg218
I16
sg219
g220
(g221
S'\x02\x00\x00\x00\x00\x00\x86B\x00\x00\x00@'
tRp516
(dp517
g30
Nsg224
Nsg225
F0
sg226
F69
sg227
I0
sg228
g514
sg229
F69
sbsbsg230
g231
(tRp518
g9
(tRp519
(dp520
g12
g13
(tRp521
(dp522
g16
Nsg7
I0
sg17
g215
sg216
g109
sg217
I0
sg218
I11
sg219
g220
(g221
S'\x02\x00\x00\x00\x00\x00DB\x00\x00\x90A'
tRp523
(dp524
g30
Nsg224
Nsg225
F0
sg226
F67
sg227
I0
sg228
g109
sg229
F67
sbsbsg230
g231
(tRp525
g9
(tRp526
(dp527
g12
g13
(tRp528
(dp529
g16
g251
(tRp530
(dp531
g254
F0.5
sg255
Nsbsg7
I0
sg17
g215
sg216
g22
(g23
(dp532
g25
Nsg26
I0
sS'name'
p533
S'wordCount'
p534
sg29
I1
sg30
Nsg31
I0
sg32
g33
(tRp535
S'0'
aS'1'
a(dbsg35
I0
sg36
I-1
stRp536
(dp537
g39
Nsbsg217
I0
sg218
I29
sg219
g220
(g221
S'\x02\x00\x00\x00\x00\x00\x00A\x00\x00$B'
tRp538
(dp539
g30
Nsg224
Nsg225
F0
sg226
F49
sg227
I0
sg228
g536
sg229
F49
sbsbsg230
g231
(tRp540
g9
(tRp541
(dp542
g12
Nsg230
NsS'branch_descriptions'
p543
NsS'node_classifier'
p544
cOrange.classification
ConstantClassifier
p545
(tRp546
(dp547
S'default_distribution'
p548
g220
(g221
S'\x03\x00\x00\x00\x00\x00\x00\x00\x00\x00\x00>\x00\x00`?'
tRp549
(dp550
g30
Nsg224
Nsg225
F0
sg226
F1
sg227
I1
sg228
g212
sg229
F8
sbsg7
I1
sg216
g212
sS'default_val'
p551
cOrange.orange
__pickleLoaderValue
p552
(NS'\x01@\x02'
NtRp553
sbsS'weight_ID'
p554
I0
sS'examples'
p555
NsS'distribution'
p556
g220
(g221
S'\x03\x00\x00\x00\x00\x00\x00\x00\x00\x00\x80?\x00\x00\xe0@'
tRp557
(dp558
g30
Nsg224
Nsg225
F0
sg226
F8
sg227
I0
sg228
g212
sg229
F8
sbsS'branch_sizes'
p559
NsS'contingency'
p560
Nsbag9
(tRp561
(dp562
g12
g13
(tRp563
(dp564
g16
g251
(tRp565
(dp566
g254
F0.5
sg255
Nsbsg7
I0
sg17
g215
sg216
g22
(g23
(dp567
g25
Nsg26
I0
sS'name'
p568
S'smallParaCount'
p569
sg29
I1
sg30
Nsg31
I0
sg32
g33
(tRp570
S'0'
aS'1'
a(dbsg35
I0
sg36
I-1
stRp571
(dp572
g39
Nsbsg217
I0
sg218
I26
sg219
g220
(g221
S'\x02\x00\x00\x00\x00\x00 A\x00\x00\xf8A'
tRp573
(dp574
g30
Nsg224
Nsg225
F0
sg226
F41
sg227
I0
sg228
g571
sg229
F41
sbsbsg230
g231
(tRp575
g9
(tRp576
(dp577
g12
g13
(tRp578
(dp579
g16
g251
(tRp580
(dp581
g254
F8
sg255
Nsbsg7
I0
sg17
g215
sg216
g22
(g23
(dp582
g25
Nsg26
I0
sS'name'
p583
S'wordCount'
p584
sg29
I1
sg30
Nsg31
I0
sg32
g33
(tRp585
S'0'
aS'1'
a(dbsg35
I0
sg36
I-1
stRp586
(dp587
g39
Nsbsg217
I0
sg218
I29
sg219
g220
(g221
S'\x02\x00\x00\x00\x00\x00\xe0@\x00\x00@@'
tRp588
(dp589
g30
Nsg224
Nsg225
F0
sg226
F10
sg227
I0
sg228
g586
sg229
F10
sbsbsg230
g231
(tRp590
g9
(tRp591
(dp592
g12
g13
(tRp593
(dp594
g16
g251
(tRp595
(dp596
g254
F1.3350000381469727
sg255
Nsbsg7
I0
sg17
g215
sg216
g22
(g23
(dp597
g25
Nsg26
I0
sS'name'
p598
S'rowToTableRatio'
p599
sg29
I1
sg30
Nsg31
I0
sg32
g33
(tRp600
S'0'
aS'1'
a(dbsg35
I0
sg36
I-1
stRp601
(dp602
g39
Nsbsg217
I0
sg218
I25
sg219
g220
(g221
S'\x02\x00\x00\x00\x00\x00\xc0@\x00\x00\x80?'
tRp603
(dp604
g30
Nsg224
Nsg225
F0
sg226
F7
sg227
I0
sg228
g601
sg229
F7
sbsbsg230
g231
(tRp605
g9
(tRp606
(dp607
g12
g13
(tRp608
(dp609
g16
g251
(tRp610
(dp611
g254
F0.5
sg255
Nsbsg7
I0
sg17
g215
sg216
g22
(g23
(dp612
g25
Nsg26
I0
sS'name'
p613
S'rowCount'
p614
sg29
I1
sg30
Nsg31
I0
sg32
g33
(tRp615
S'0'
aS'1'
a(dbsg35
I0
sg36
I-1
stRp616
(dp617
g39
Nsbsg217
I0
sg218
I24
sg219
g220
(g221
S'\x02\x00\x00\x00\x00\x00\xa0@\x00\x00\x80?'
tRp618
(dp619
g30
Nsg224
Nsg225
F0
sg226
F6
sg227
I0
sg228
g616
sg229
F6
sbsbsg230
g231
(tRp620
g9
(tRp621
(dp622
g12
g13
(tRp623
(dp624
g16
g251
(tRp625
(dp626
g254
F0.5
sg255
Nsbsg7
I0
sg17
g215
sg216
g22
(g23
(dp627
g25
Nsg26
I0
sS'name'
p628
S'internalLinks'
p629
sg29
I1
sg30
Nsg31
I0
sg32
g33
(tRp630
S'0'
aS'1'
a(dbsg35
I0
sg36
I-1
stRp631
(dp632
g39
Nsbsg217
I0
sg218
I17
sg219
g220
(g221
S'\x02\x00\x00\x00\x00\x00\x00@\x00\x00@@'
tRp633
(dp634
g30
Nsg224
Nsg225
F0
sg226
F5
sg227
I0
sg228
g631
sg229
F5
sbsbsg230
g231
(tRp635
g9
(tRp636
(dp637
g12
g13
(tRp638
(dp639
g16
g251
(tRp640
(dp641
g254
F0.5
sg255
Nsbsg7
I0
sg17
g215
sg216
g22
(g23
(dp642
g25
Nsg26
I0
sS'name'
p643
S'divCount'
p644
sg29
I1
sg30
Nsg31
I0
sg32
g33
(tRp645
S'0'
aS'1'
a(dbsg35
I0
sg36
I-1
stRp646
(dp647
g39
Nsbsg217
I0
sg218
I2
sg219
g220
(g221
S'\x02\x00\x00\x00\x00\x00\x80?\x00\x00\x80?'
tRp648
(dp649
g30
Nsg224
Nsg225
F0
sg226
F2
sg227
I0
sg228
g646
sg229
F2
sbsbsg230
g231
(tRp650
g9
(tRp651
(dp652
g12
Nsg230
Nsg543
Nsg544
g545
(tRp653
(dp654
g548
g220
(g221
S'\x03\x00\x00\x00\x00\x00\x00\x00\x00\x00\x00\x00\x00\x00\x80?'
tRp655
(dp656
g30
Nsg224
Nsg225
F0
sg226
F1
sg227
I1
sg228
g212
sg229
F1
sbsg7
I1
sg216
g212
sg551
g552
(NS'\x01@\x02'
NtRp657
sbsg554
I0
sg555
Nsg556
g220
(g221
S'\x03\x00\x00\x00\x00\x00\x00\x00\x00\x00\x00\x00\x00\x00\x80?'
tRp658
(dp659
g30
Nsg224
Nsg225
F0
sg226
F1
sg227
I0
sg228
g212
sg229
F1
sbsg559
Nsg560
Nsbag9
(tRp660
(dp661
g12
Nsg230
Nsg543
Nsg544
g545
(tRp662
(dp663
g548
g220
(g221
S'\x03\x00\x00\x00\x00\x00\x80?\x00\x00\x00\x00\x00\x00\x00\x00'
tRp664
(dp665
g30
Nsg224
Nsg225
F0
sg226
F1
sg227
I1
sg228
g212
sg229
F1
sbsg7
I1
sg216
g212
sg551
g552
(NS'\x01@\x00'
NtRp666
sbsg554
I0
sg555
Nsg556
g220
(g221
S'\x03\x00\x00\x00\x00\x00\x80?\x00\x00\x00\x00\x00\x00\x00\x00'
tRp667
(dp668
g30
Nsg224
Nsg225
F0
sg226
F1
sg227
I0
sg228
g212
sg229
F1
sbsg559
Nsg560
Nsba(dbsg543
g33
(tRp669
S'<=0.500'
aS'>0.500'
a(dbsg544
g545
(tRp670
(dp671
g548
g220
(g221
S'\x03\x00\x00\x00\x00\x00\x00?\x00\x00\x00\x00\x00\x00\x00?'
tRp672
(dp673
g30
Nsg224
Nsg225
F0
sg226
F1
sg227
I1
sg228
g212
sg229
F2
sbsg7
I1
sg216
g212
sg551
g552
(NS'\x01@\x00'
NtRp674
sbsg554
I0
sg555
Nsg556
g220
(g221
S'\x03\x00\x00\x00\x00\x00\x80?\x00\x00\x00\x00\x00\x00\x80?'
tRp675
(dp676
g30
Nsg224
Nsg225
F0
sg226
F2
sg227
I0
sg228
g212
sg229
F2
sbsg559
g648
sg560
Nsbag9
(tRp677
(dp678
g12
g13
(tRp679
(dp680
g16
g251
(tRp681
(dp682
g254
F4
sg255
Nsbsg7
I0
sg17
g215
sg216
g22
(g23
(dp683
g25
Nsg26
I0
sS'name'
p684
S'wordCount'
p685
sg29
I1
sg30
Nsg31
I0
sg32
g33
(tRp686
S'0'
aS'1'
a(dbsg35
I0
sg36
I-1
stRp687
(dp688
g39
Nsbsg217
I0
sg218
I29
sg219
g220
(g221
S'\x02\x00\x00\x00\x00\x00\x00@\x00\x00\x80?'
tRp689
(dp690
g30
Nsg224
Nsg225
F0
sg226
F3
sg227
I0
sg228
g687
sg229
F3
sbsbsg230
g231
(tRp691
g9
(tRp692
(dp693
g12
Nsg230
Nsg543
Nsg544
g545
(tRp694
(dp695
g548
g220
(g221
S'\x03\x00\x00\x00\x00\x00\x00\x00\x00\x00\x00\x00\x00\x00\x80?'
tRp696
(dp697
g30
Nsg224
Nsg225
F0
sg226
F1
sg227
I1
sg228
g212
sg229
F2
sbsg7
I1
sg216
g212
sg551
g552
(NS'\x01@\x02'
NtRp698
sbsg554
I0
sg555
Nsg556
g220
(g221
S'\x03\x00\x00\x00\x00\x00\x00\x00\x00\x00\x00\x00\x00\x00\x00@'
tRp699
(dp700
g30
Nsg224
Nsg225
F0
sg226
F2
sg227
I0
sg228
g212
sg229
F2
sbsg559
Nsg560
Nsbag9
(tRp701
(dp702
g12
Nsg230
Nsg543
Nsg544
g545
(tRp703
(dp704
g548
g220
(g221
S'\x03\x00\x00\x00\x00\x00\x80?\x00\x00\x00\x00\x00\x00\x00\x00'
tRp705
(dp706
g30
Nsg224
Nsg225
F0
sg226
F1
sg227
I1
sg228
g212
sg229
F1
sbsg7
I1
sg216
g212
sg551
g552
(NS'\x01@\x00'
NtRp707
sbsg554
I0
sg555
Nsg556
g220
(g221
S'\x03\x00\x00\x00\x00\x00\x80?\x00\x00\x00\x00\x00\x00\x00\x00'
tRp708
(dp709
g30
Nsg224
Nsg225
F0
sg226
F1
sg227
I0
sg228
g212
sg229
F1
sbsg559
Nsg560
Nsba(dbsg543
g33
(tRp710
S'<=4.000'
aS'>4.000'
a(dbsg544
g545
(tRp711
(dp712
g548
g220
(g221
S'\x03\x00\x00\x00\xab\xaa\xaa>\x00\x00\x00\x00\xab\xaa*?'
tRp713
(dp714
g30
Nsg224
Nsg225
F0
sg226
F1
sg227
I1
sg228
g212
sg229
F3
sbsg7
I1
sg216
g212
sg551
g552
(NS'\x01@\x02'
NtRp715
sbsg554
I0
sg555
Nsg556
g220
(g221
S'\x03\x00\x00\x00\x00\x00\x80?\x00\x00\x00\x00\x00\x00\x00@'
tRp716
(dp717
g30
Nsg224
Nsg225
F0
sg226
F3
sg227
I0
sg228
g212
sg229
F3
sbsg559
g689
sg560
Nsba(dbsg543
g33
(tRp718
S'<=0.500'
aS'>0.500'
a(dbsg544
g545
(tRp719
(dp720
g548
g220
(g221
S'\x03\x00\x00\x00\xcd\xcc\xcc>\x00\x00\x00\x00\x9a\x99\x19?'
tRp721
(dp722
g30
Nsg224
Nsg225
F0
sg226
F1
sg227
I1
sg228
g212
sg229
F5
sbsg7
I1
sg216
g212
sg551
g552
(NS'\x01@\x02'
NtRp723
sbsg554
I0
sg555
Nsg556
g220
(g221
S'\x03\x00\x00\x00\x00\x00\x00@\x00\x00\x00\x00\x00\x00@@'
tRp724
(dp725
g30
Nsg224
Nsg225
F0
sg226
F5
sg227
I0
sg228
g212
sg229
F5
sbsg559
g633
sg560
Nsbag9
(tRp726
(dp727
g12
Nsg230
Nsg543
Nsg544
g545
(tRp728
(dp729
g548
g220
(g221
S'\x03\x00\x00\x00\x00\x00\x00\x00\x00\x00\x00\x00\x00\x00\x80?'
tRp730
(dp731
g30
Nsg224
Nsg225
F0
sg226
F1
sg227
I1
sg228
g212
sg229
F1
sbsg7
I1
sg216
g212
sg551
g552
(NS'\x01@\x02'
NtRp732
sbsg554
I0
sg555
Nsg556
g220
(g221
S'\x03\x00\x00\x00\x00\x00\x00\x00\x00\x00\x00\x00\x00\x00\x80?'
tRp733
(dp734
g30
Nsg224
Nsg225
F0
sg226
F1
sg227
I0
sg228
g212
sg229
F1
sbsg559
Nsg560
Nsba(dbsg543
g33
(tRp735
S'<=0.500'
aS'>0.500'
a(dbsg544
g545
(tRp736
(dp737
g548
g220
(g221
S'\x03\x00\x00\x00\xab\xaa\xaa>\x00\x00\x00\x00\xab\xaa*?'
tRp738
(dp739
g30
Nsg224
Nsg225
F0
sg226
F1
sg227
I1
sg228
g212
sg229
F6
sbsg7
I1
sg216
g212
sg551
g552
(NS'\x01@\x02'
NtRp740
sbsg554
I0
sg555
Nsg556
g220
(g221
S'\x03\x00\x00\x00\x00\x00\x00@\x00\x00\x00\x00\x00\x00\x80@'
tRp741
(dp742
g30
Nsg224
Nsg225
F0
sg226
F6
sg227
I0
sg228
g212
sg229
F6
sbsg559
g618
sg560
Nsbag9
(tRp743
(dp744
g12
Nsg230
Nsg543
Nsg544
g545
(tRp745
(dp746
g548
g220
(g221
S'\x03\x00\x00\x00\x00\x00\x80?\x00\x00\x00\x00\x00\x00\x00\x00'
tRp747
(dp748
g30
Nsg224
Nsg225
F0
sg226
F1
sg227
I1
sg228
g212
sg229
F1
sbsg7
I1
sg216
g212
sg551
g552
(NS'\x01@\x00'
NtRp749
sbsg554
I0
sg555
Nsg556
g220
(g221
S'\x03\x00\x00\x00\x00\x00\x80?\x00\x00\x00\x00\x00\x00\x00\x00'
tRp750
(dp751
g30
Nsg224
Nsg225
F0
sg226
F1
sg227
I0
sg228
g212
sg229
F1
sbsg559
Nsg560
Nsba(dbsg543
g33
(tRp752
S'<=1.335'
aS'>1.335'
a(dbsg544
g545
(tRp753
(dp754
g548
g220
(g221
S'\x03\x00\x00\x00\xb7m\xdb>\x00\x00\x00\x00%I\x12?'
tRp755
(dp756
g30
Nsg224
Nsg225
F0
sg226
F1
sg227
I1
sg228
g212
sg229
F7
sbsg7
I1
sg216
g212
sg551
g552
(NS'\x01@\x02'
NtRp757
sbsg554
I0
sg555
Nsg556
g220
(g221
S'\x03\x00\x00\x00\x00\x00@@\x00\x00\x00\x00\x00\x00\x80@'
tRp758
(dp759
g30
Nsg224
Nsg225
F0
sg226
F7
sg227
I0
sg228
g212
sg229
F7
sbsg559
g603
sg560
Nsbag9
(tRp760
(dp761
g12
Nsg230
Nsg543
Nsg544
g545
(tRp762
(dp763
g548
g220
(g221
S'\x03\x00\x00\x00\x00\x00\x80?\x00\x00\x00\x00\x00\x00\x00\x00'
tRp764
(dp765
g30
Nsg224
Nsg225
F0
sg226
F1
sg227
I1
sg228
g212
sg229
F3
sbsg7
I1
sg216
g212
sg551
g552
(NS'\x01@\x00'
NtRp766
sbsg554
I0
sg555
Nsg556
g220
(g221
S'\x03\x00\x00\x00\x00\x00@@\x00\x00\x00\x00\x00\x00\x00\x00'
tRp767
(dp768
g30
Nsg224
Nsg225
F0
sg226
F3
sg227
I0
sg228
g212
sg229
F3
sbsg559
Nsg560
Nsba(dbsg543
g33
(tRp769
S'<=8.000'
aS'>8.000'
a(dbsg544
g545
(tRp770
(dp771
g548
g220
(g221
S'\x03\x00\x00\x00\x9a\x99\x19?\x00\x00\x00\x00\xcd\xcc\xcc>'
tRp772
(dp773
g30
Nsg224
Nsg225
F0
sg226
F1
sg227
I1
sg228
g212
sg229
F10
sbsg7
I1
sg216
g212
sg551
g552
(NS'\x01@\x00'
NtRp774
sbsg554
I0
sg555
Nsg556
g220
(g221
S'\x03\x00\x00\x00\x00\x00\xc0@\x00\x00\x00\x00\x00\x00\x80@'
tRp775
(dp776
g30
Nsg224
Nsg225
F0
sg226
F10
sg227
I0
sg228
g212
sg229
F10
sbsg559
g588
sg560
Nsbag9
(tRp777
(dp778
g12
g13
(tRp779
(dp780
g16
g251
(tRp781
(dp782
g254
F8.5
sg255
Nsbsg7
I0
sg17
g215
sg216
g22
(g23
(dp783
g25
Nsg26
I0
sS'name'
p784
S'wordCount'
p785
sg29
I1
sg30
Nsg31
I0
sg32
g33
(tRp786
S'0'
aS'1'
a(dbsg35
I0
sg36
I-1
stRp787
(dp788
g39
Nsbsg217
I0
sg218
I29
sg219
g220
(g221
S'\x02\x00\x00\x00\x00\x00\x00A\x00\x00\xb8A'
tRp789
(dp790
g30
Nsg224
Nsg225
F0
sg226
F31
sg227
I0
sg228
g787
sg229
F31
sbsbsg230
g231
(tRp791
g9
(tRp792
(dp793
g12
Nsg230
Nsg543
Nsg544
g545
(tRp794
(dp795
g548
g220
(g221
S'\x03\x00\x00\x00\x00\x00\x00\x00\x00\x00\x00\x00\x00\x00\x80?'
tRp796
(dp797
g30
Nsg224
Nsg225
F0
sg226
F1
sg227
I1
sg228
g212
sg229
F8
sbsg7
I1
sg216
g212
sg551
g552
(NS'\x01@\x02'
NtRp798
sbsg554
I0
sg555
Nsg556
g220
(g221
S'\x03\x00\x00\x00\x00\x00\x00\x00\x00\x00\x00\x00\x00\x00\x00A'
tRp799
(dp800
g30
Nsg224
Nsg225
F0
sg226
F8
sg227
I0
sg228
g212
sg229
F8
sbsg559
Nsg560
Nsbag9
(tRp801
(dp802
g12
g13
(tRp803
(dp804
g16
g251
(tRp805
(dp806
g254
F11.5
sg255
Nsbsg7
I0
sg17
g215
sg216
g22
(g23
(dp807
g25
Nsg26
I0
sS'name'
p808
S'wordCount'
p809
sg29
I1
sg30
Nsg31
I0
sg32
g33
(tRp810
S'0'
aS'1'
a(dbsg35
I0
sg36
I-1
stRp811
(dp812
g39
Nsbsg217
I0
sg218
I29
sg219
g220
(g221
S'\x02\x00\x00\x00\x00\x00\x00@\x00\x00\xa8A'
tRp813
(dp814
g30
Nsg224
Nsg225
F0
sg226
F23
sg227
I0
sg228
g811
sg229
F23
sbsbsg230
g231
(tRp815
g9
(tRp816
(dp817
g12
Nsg230
Nsg543
Nsg544
g545
(tRp818
(dp819
g548
g220
(g221
S'\x03\x00\x00\x00\x00\x00\x80?\x00\x00\x00\x00\x00\x00\x00\x00'
tRp820
(dp821
g30
Nsg224
Nsg225
F0
sg226
F1
sg227
I1
sg228
g212
sg229
F2
sbsg7
I1
sg216
g212
sg551
g552
(NS'\x01@\x00'
NtRp822
sbsg554
I0
sg555
Nsg556
g220
(g221
S'\x03\x00\x00\x00\x00\x00\x00@\x00\x00\x00\x00\x00\x00\x00\x00'
tRp823
(dp824
g30
Nsg224
Nsg225
F0
sg226
F2
sg227
I0
sg228
g212
sg229
F2
sbsg559
Nsg560
Nsbag9
(tRp825
(dp826
g12
g13
(tRp827
(dp828
g16
g251
(tRp829
(dp830
g254
F1.5
sg255
Nsbsg7
I0
sg17
g215
sg216
g22
(g23
(dp831
g25
Nsg26
I0
sS'name'
p832
S'smallParaCount'
p833
sg29
I1
sg30
Nsg31
I0
sg32
g33
(tRp834
S'0'
aS'1'
a(dbsg35
I0
sg36
I-1
stRp835
(dp836
g39
Nsbsg217
I0
sg218
I26
sg219
g220
(g221
S'\x02\x00\x00\x00\x00\x00\x80@\x00\x00\x88A'
tRp837
(dp838
g30
Nsg224
Nsg225
F0
sg226
F21
sg227
I0
sg228
g835
sg229
F21
sbsbsg230
g231
(tRp839
g9
(tRp840
(dp841
g12
g13
(tRp842
(dp843
g16
g251
(tRp844
(dp845
g254
F13
sg255
Nsbsg7
I0
sg17
g215
sg216
g22
(g23
(dp846
g25
Nsg26
I0
sS'name'
p847
S'divCount'
p848
sg29
I1
sg30
Nsg31
I0
sg32
g33
(tRp849
S'0'
aS'1'
a(dbsg35
I0
sg36
I-1
stRp850
(dp851
g39
Nsbsg217
I0
sg218
I2
sg219
g220
(g221
S'\x02\x00\x00\x00\x00\x00\x00@\x00\x00\x00@'
tRp852
(dp853
g30
Nsg224
Nsg225
F0
sg226
F4
sg227
I0
sg228
g850
sg229
F4
sbsbsg230
g231
(tRp854
g9
(tRp855
(dp856
g12
Nsg230
Nsg543
Nsg544
g545
(tRp857
(dp858
g548
g220
(g221
S'\x03\x00\x00\x00\x00\x00\x00\x00\x00\x00\x00?\x00\x00\x00?'
tRp859
(dp860
g30
Nsg224
Nsg225
F0
sg226
F1
sg227
I1
sg228
g212
sg229
F2
sbsg7
I1
sg216
g212
sg551
g552
(NS'\x01@\x01'
NtRp861
sbsg554
I0
sg555
Nsg556
g220
(g221
S'\x03\x00\x00\x00\x00\x00\x00\x00\x00\x00\x80?\x00\x00\x80?'
tRp862
(dp863
g30
Nsg224
Nsg225
F0
sg226
F2
sg227
I0
sg228
g212
sg229
F2
sbsg559
Nsg560
Nsbag9
(tRp864
(dp865
g12
Nsg230
Nsg543
Nsg544
g545
(tRp866
(dp867
g548
g220
(g221
S'\x03\x00\x00\x00\x00\x00\x00\x00\x00\x00\x00\x00\x00\x00\x80?'
tRp868
(dp869
g30
Nsg224
Nsg225
F0
sg226
F1
sg227
I1
sg228
g212
sg229
F2
sbsg7
I1
sg216
g212
sg551
g552
(NS'\x01@\x02'
NtRp870
sbsg554
I0
sg555
Nsg556
g220
(g221
S'\x03\x00\x00\x00\x00\x00\x00\x00\x00\x00\x00\x00\x00\x00\x00@'
tRp871
(dp872
g30
Nsg224
Nsg225
F0
sg226
F2
sg227
I0
sg228
g212
sg229
F2
sbsg559
Nsg560
Nsba(dbsg543
g33
(tRp873
S'<=13.000'
aS'>13.000'
a(dbsg544
g545
(tRp874
(dp875
g548
g220
(g221
S'\x03\x00\x00\x00\x00\x00\x00\x00\x00\x00\x80>\x00\x00@?'
tRp876
(dp877
g30
Nsg224
Nsg225
F0
sg226
F1
sg227
I1
sg228
g212
sg229
F4
sbsg7
I1
sg216
g212
sg551
g552
(NS'\x01@\x02'
NtRp878
sbsg554
I0
sg555
Nsg556
g220
(g221
S'\x03\x00\x00\x00\x00\x00\x00\x00\x00\x00\x80?\x00\x00@@'
tRp879
(dp880
g30
Nsg224
Nsg225
F0
sg226
F4
sg227
I0
sg228
g212
sg229
F4
sbsg559
g852
sg560
Nsbag9
(tRp881
(dp882
g12
g13
(tRp883
(dp884
g16
g251
(tRp885
(dp886
g254
F1.7300000190734863
sg255
Nsbsg7
I0
sg17
g215
sg216
g22
(g23
(dp887
g25
Nsg26
I0
sS'name'
p888
S'rowToTableRatio'
p889
sg29
I1
sg30
Nsg31
I0
sg32
g33
(tRp890
S'0'
aS'1'
a(dbsg35
I0
sg36
I-1
stRp891
(dp892
g39
Nsbsg217
I0
sg218
I25
sg219
g220
(g221
S'\x02\x00\x00\x00\x00\x00\x80A\x00\x00\x80?'
tRp893
(dp894
g30
Nsg224
Nsg225
F0
sg226
F17
sg227
I0
sg228
g891
sg229
F17
sbsbsg230
g231
(tRp895
g9
(tRp896
(dp897
g12
g13
(tRp898
(dp899
g16
g251
(tRp900
(dp901
g254
F189.75
sg255
Nsbsg7
I0
sg17
g215
sg216
g22
(g23
(dp902
g25
Nsg26
I0
sS'name'
p903
S'wordToParaRatio'
p904
sg29
I1
sg30
Nsg31
I0
sg32
g33
(tRp905
S'0'
aS'1'
a(dbsg35
I0
sg36
I-1
stRp906
(dp907
g39
Nsbsg217
I0
sg218
I30
sg219
g220
(g221
S'\x02\x00\x00\x00\x00\x00`A\x00\x00\x00@'
tRp908
(dp909
g30
Nsg224
Nsg225
F0
sg226
F16
sg227
I0
sg228
g906
sg229
F16
sbsbsg230
g231
(tRp910
g9
(tRp911
(dp912
g12
g13
(tRp913
(dp914
g16
g251
(tRp915
(dp916
g254
F21
sg255
Nsbsg7
I0
sg17
g215
sg216
g22
(g23
(dp917
g25
Nsg26
I0
sS'name'
p918
S'wordCount'
p919
sg29
I1
sg30
Nsg31
I0
sg32
g33
(tRp920
S'0'
aS'1'
a(dbsg35
I0
sg36
I-1
stRp921
(dp922
g39
Nsbsg217
I0
sg218
I29
sg219
g220
(g221
S'\x02\x00\x00\x00\x00\x00\x00@\x00\x00@A'
tRp923
(dp924
g30
Nsg224
Nsg225
F0
sg226
F14
sg227
I0
sg228
g921
sg229
F14
sbsbsg230
g231
(tRp925
g9
(tRp926
(dp927
g12
g13
(tRp928
(dp929
g16
g251
(tRp930
(dp931
g254
F6
sg255
Nsbsg7
I0
sg17
g215
sg216
g22
(g23
(dp932
g25
Nsg26
I0
sS'name'
p933
S'rowCount'
p934
sg29
I1
sg30
Nsg31
I0
sg32
g33
(tRp935
S'0'
aS'1'
a(dbsg35
I0
sg36
I-1
stRp936
(dp937
g39
Nsbsg217
I0
sg218
I24
sg219
g220
(g221
S'\x02\x00\x00\x00\x00\x00\x80?\x00\x00\x80?'
tRp938
(dp939
g30
Nsg224
Nsg225
F0
sg226
F2
sg227
I0
sg228
g936
sg229
F2
sbsbsg230
g231
(tRp940
g9
(tRp941
(dp942
g12
Nsg230
Nsg543
Nsg544
g545
(tRp943
(dp944
g548
g220
(g221
S'\x03\x00\x00\x00\x00\x00\x80?\x00\x00\x00\x00\x00\x00\x00\x00'
tRp945
(dp946
g30
Nsg224
Nsg225
F0
sg226
F1
sg227
I1
sg228
g212
sg229
F1
sbsg7
I1
sg216
g212
sg551
g552
(NS'\x01@\x00'
NtRp947
sbsg554
I0
sg555
Nsg556
g220
(g221
S'\x03\x00\x00\x00\x00\x00\x80?\x00\x00\x00\x00\x00\x00\x00\x00'
tRp948
(dp949
g30
Nsg224
Nsg225
F0
sg226
F1
sg227
I0
sg228
g212
sg229
F1
sbsg559
Nsg560
Nsbag9
(tRp950
(dp951
g12
Nsg230
Nsg543
Nsg544
g545
(tRp952
(dp953
g548
g220
(g221
S'\x03\x00\x00\x00\x00\x00\x00\x00\x00\x00\x00\x00\x00\x00\x80?'
tRp954
(dp955
g30
Nsg224
Nsg225
F0
sg226
F1
sg227
I1
sg228
g212
sg229
F1
sbsg7
I1
sg216
g212
sg551
g552
(NS'\x01@\x02'
NtRp956
sbsg554
I0
sg555
Nsg556
g220
(g221
S'\x03\x00\x00\x00\x00\x00\x00\x00\x00\x00\x00\x00\x00\x00\x80?'
tRp957
(dp958
g30
Nsg224
Nsg225
F0
sg226
F1
sg227
I0
sg228
g212
sg229
F1
sbsg559
Nsg560
Nsba(dbsg543
g33
(tRp959
S'<=6.000'
aS'>6.000'
a(dbsg544
g545
(tRp960
(dp961
g548
g220
(g221
S'\x03\x00\x00\x00\x00\x00\x00?\x00\x00\x00\x00\x00\x00\x00?'
tRp962
(dp963
g30
Nsg224
Nsg225
F0
sg226
F1
sg227
I1
sg228
g212
sg229
F2
sbsg7
I1
sg216
g212
sg551
g552
(NS'\x01@\x00'
NtRp964
sbsg554
I0
sg555
Nsg556
g220
(g221
S'\x03\x00\x00\x00\x00\x00\x80?\x00\x00\x00\x00\x00\x00\x80?'
tRp965
(dp966
g30
Nsg224
Nsg225
F0
sg226
F2
sg227
I0
sg228
g212
sg229
F2
sbsg559
g938
sg560
Nsbag9
(tRp967
(dp968
g12
Nsg230
Nsg543
Nsg544
g545
(tRp969
(dp970
g548
g220
(g221
S'\x03\x00\x00\x00\x00\x00\x00\x00\x00\x00\x00\x00\x00\x00\x80?'
tRp971
(dp972
g30
Nsg224
Nsg225
F0
sg226
F1
sg227
I1
sg228
g212
sg229
F12
sbsg7
I1
sg216
g212
sg551
g552
(NS'\x01@\x02'
NtRp973
sbsg554
I0
sg555
Nsg556
g220
(g221
S'\x03\x00\x00\x00\x00\x00\x00\x00\x00\x00\x00\x00\x00\x00@A'
tRp974
(dp975
g30
Nsg224
Nsg225
F0
sg226
F12
sg227
I0
sg228
g212
sg229
F12
sbsg559
Nsg560
Nsba(dbsg543
g33
(tRp976
S'<=21.000'
aS'>21.000'
a(dbsg544
g545
(tRp977
(dp978
g548
g220
(g221
S'\x03\x00\x00\x00%I\x92=\x00\x00\x00\x00\xdb\xb6m?'
tRp979
(dp980
g30
Nsg224
Nsg225
F0
sg226
F1
sg227
I1
sg228
g212
sg229
F14
sbsg7
I1
sg216
g212
sg551
g552
(NS'\x01@\x02'
NtRp981
sbsg554
I0
sg555
Nsg556
g220
(g221
S'\x03\x00\x00\x00\x00\x00\x80?\x00\x00\x00\x00\x00\x00PA'
tRp982
(dp983
g30
Nsg224
Nsg225
F0
sg226
F14
sg227
I0
sg228
g212
sg229
F14
sbsg559
g923
sg560
Nsbag9
(tRp984
(dp985
g12
g13
(tRp986
(dp987
g16
g251
(tRp988
(dp989
g254
F24.5
sg255
Nsbsg7
I0
sg17
g215
sg216
g22
(g23
(dp990
g25
Nsg26
I0
sS'name'
p991
S'internalLinks'
p992
sg29
I1
sg30
Nsg31
I0
sg32
g33
(tRp993
S'0'
aS'1'
a(dbsg35
I0
sg36
I-1
stRp994
(dp995
g39
Nsbsg217
I0
sg218
I17
sg219
g220
(g221
S'\x02\x00\x00\x00\x00\x00\x80?\x00\x00\x80?'
tRp996
(dp997
g30
Nsg224
Nsg225
F0
sg226
F2
sg227
I0
sg228
g994
sg229
F2
sbsbsg230
g231
(tRp998
g9
(tRp999
(dp1000
g12
Nsg230
Nsg543
Nsg544
g545
(tRp1001
(dp1002
g548
g220
(g221
S'\x03\x00\x00\x00\x00\x00\x80?\x00\x00\x00\x00\x00\x00\x00\x00'
tRp1003
(dp1004
g30
Nsg224
Nsg225
F0
sg226
F1
sg227
I1
sg228
g212
sg229
F1
sbsg7
I1
sg216
g212
sg551
g552
(NS'\x01@\x00'
NtRp1005
sbsg554
I0
sg555
Nsg556
g220
(g221
S'\x03\x00\x00\x00\x00\x00\x80?\x00\x00\x00\x00\x00\x00\x00\x00'
tRp1006
(dp1007
g30
Nsg224
Nsg225
F0
sg226
F1
sg227
I0
sg228
g212
sg229
F1
sbsg559
Nsg560
Nsbag9
(tRp1008
(dp1009
g12
Nsg230
Nsg543
Nsg544
g545
(tRp1010
(dp1011
g548
g220
(g221
S'\x03\x00\x00\x00\x00\x00\x00\x00\x00\x00\x00\x00\x00\x00\x80?'
tRp1012
(dp1013
g30
Nsg224
Nsg225
F0
sg226
F1
sg227
I1
sg228
g212
sg229
F1
sbsg7
I1
sg216
g212
sg551
g552
(NS'\x01@\x02'
NtRp1014
sbsg554
I0
sg555
Nsg556
g220
(g221
S'\x03\x00\x00\x00\x00\x00\x00\x00\x00\x00\x00\x00\x00\x00\x80?'
tRp1015
(dp1016
g30
Nsg224
Nsg225
F0
sg226
F1
sg227
I0
sg228
g212
sg229
F1
sbsg559
Nsg560
Nsba(dbsg543
g33
(tRp1017
S'<=24.500'
aS'>24.500'
a(dbsg544
g545
(tRp1018
(dp1019
g548
g220
(g221
S'\x03\x00\x00\x00\x00\x00\x00?\x00\x00\x00\x00\x00\x00\x00?'
tRp1020
(dp1021
g30
Nsg224
Nsg225
F0
sg226
F1
sg227
I1
sg228
g212
sg229
F2
sbsg7
I1
sg216
g212
sg551
g552
(NS'\x01@\x00'
NtRp1022
sbsg554
I0
sg555
Nsg556
g220
(g221
S'\x03\x00\x00\x00\x00\x00\x80?\x00\x00\x00\x00\x00\x00\x80?'
tRp1023
(dp1024
g30
Nsg224
Nsg225
F0
sg226
F2
sg227
I0
sg228
g212
sg229
F2
sbsg559
g996
sg560
Nsba(dbsg543
g33
(tRp1025
S'<=189.750'
aS'>189.750'
a(dbsg544
g545
(tRp1026
(dp1027
g548
g220
(g221
S'\x03\x00\x00\x00\x00\x00\x00>\x00\x00\x00\x00\x00\x00`?'
tRp1028
(dp1029
g30
Nsg224
Nsg225
F0
sg226
F1
sg227
I1
sg228
g212
sg229
F16
sbsg7
I1
sg216
g212
sg551
g552
(NS'\x01@\x02'
NtRp1030
sbsg554
I0
sg555
Nsg556
g220
(g221
S'\x03\x00\x00\x00\x00\x00\x00@\x00\x00\x00\x00\x00\x00`A'
tRp1031
(dp1032
g30
Nsg224
Nsg225
F0
sg226
F16
sg227
I0
sg228
g212
sg229
F16
sbsg559
g908
sg560
Nsbag9
(tRp1033
(dp1034
g12
Nsg230
Nsg543
Nsg544
g545
(tRp1035
(dp1036
g548
g220
(g221
S'\x03\x00\x00\x00\x00\x00\x80?\x00\x00\x00\x00\x00\x00\x00\x00'
tRp1037
(dp1038
g30
Nsg224
Nsg225
F0
sg226
F1
sg227
I1
sg228
g212
sg229
F1
sbsg7
I1
sg216
g212
sg551
g552
(NS'\x01@\x00'
NtRp1039
sbsg554
I0
sg555
Nsg556
g220
(g221
S'\x03\x00\x00\x00\x00\x00\x80?\x00\x00\x00\x00\x00\x00\x00\x00'
tRp1040
(dp1041
g30
Nsg224
Nsg225
F0
sg226
F1
sg227
I0
sg228
g212
sg229
F1
sbsg559
Nsg560
Nsba(dbsg543
g33
(tRp1042
S'<=1.730'
aS'>1.730'
a(dbsg544
g545
(tRp1043
(dp1044
g548
g220
(g221
S'\x03\x00\x00\x00\xb5\xb44>\x00\x00\x00\x00\xd3\xd2R?'
tRp1045
(dp1046
g30
Nsg224
Nsg225
F0
sg226
F1
sg227
I1
sg228
g212
sg229
F17
sbsg7
I1
sg216
g212
sg551
g552
(NS'\x01@\x02'
NtRp1047
sbsg554
I0
sg555
Nsg556
g220
(g221
S'\x03\x00\x00\x00\x00\x00@@\x00\x00\x00\x00\x00\x00`A'
tRp1048
(dp1049
g30
Nsg224
Nsg225
F0
sg226
F17
sg227
I0
sg228
g212
sg229
F17
sbsg559
g893
sg560
Nsba(dbsg543
g33
(tRp1050
S'<=1.500'
aS'>1.500'
a(dbsg544
g545
(tRp1051
(dp1052
g548
g220
(g221
S'\x03\x00\x00\x00%I\x12>1\x0cC=\xf4<O?'
tRp1053
(dp1054
g30
Nsg224
Nsg225
F0
sg226
F1
sg227
I1
sg228
g212
sg229
F21
sbsg7
I1
sg216
g212
sg551
g552
(NS'\x01@\x02'
NtRp1055
sbsg554
I0
sg555
Nsg556
g220
(g221
S'\x03\x00\x00\x00\x00\x00@@\x00\x00\x80?\x00\x00\x88A'
tRp1056
(dp1057
g30
Nsg224
Nsg225
F0
sg226
F21
sg227
I0
sg228
g212
sg229
F21
sbsg559
g837
sg560
Nsba(dbsg543
g33
(tRp1058
S'<=11.500'
aS'>11.500'
a(dbsg544
g545
(tRp1059
(dp1060
g548
g220
(g221
S'\x03\x00\x00\x00\xd3\x9b^>C\x162=\xa77=?'
tRp1061
(dp1062
g30
Nsg224
Nsg225
F0
sg226
F1
sg227
I1
sg228
g212
sg229
F23
sbsg7
I1
sg216
g212
sg551
g552
(NS'\x01@\x02'
NtRp1063
sbsg554
I0
sg555
Nsg556
g220
(g221
S'\x03\x00\x00\x00\x00\x00\xa0@\x00\x00\x80?\x00\x00\x88A'
tRp1064
(dp1065
g30
Nsg224
Nsg225
F0
sg226
F23
sg227
I0
sg228
g212
sg229
F23
sbsg559
g813
sg560
Nsba(dbsg543
g33
(tRp1066
S'<=8.500'
aS'>8.500'
a(dbsg544
g545
(tRp1067
(dp1068
g548
g220
(g221
S'\x03\x00\x00\x00J)%>\x08!\x04=\x9dsN?'
tRp1069
(dp1070
g30
Nsg224
Nsg225
F0
sg226
F1
sg227
I1
sg228
g212
sg229
F31
sbsg7
I1
sg216
g212
sg551
g552
(NS'\x01@\x02'
NtRp1071
sbsg554
I0
sg555
Nsg556
g220
(g221
S'\x03\x00\x00\x00\x00\x00\xa0@\x00\x00\x80?\x00\x00\xc8A'
tRp1072
(dp1073
g30
Nsg224
Nsg225
F0
sg226
F31
sg227
I0
sg228
g212
sg229
F31
sbsg559
g789
sg560
Nsba(dbsg543
g33
(tRp1074
S'<=0.500'
aS'>0.500'
a(dbsg544
g545
(tRp1075
(dp1076
g548
g220
(g221
S'\x03\x00\x00\x00\xa9]\x89>\x0c\xce\xc7<\xbb\x125?'
tRp1077
(dp1078
g30
Nsg224
Nsg225
F0
sg226
F1
sg227
I1
sg228
g212
sg229
F41
sbsg7
I1
sg216
g212
sg551
g552
(NS'\x01@\x02'
NtRp1079
sbsg554
I0
sg555
Nsg556
g220
(g221
S'\x03\x00\x00\x00\x00\x000A\x00\x00\x80?\x00\x00\xe8A'
tRp1080
(dp1081
g30
Nsg224
Nsg225
F0
sg226
F41
sg227
I0
sg228
g212
sg229
F41
sbsg559
g573
sg560
Nsba(dbsg543
g33
(tRp1082
S'<=0.500'
aS'>0.500'
a(dbsg544
g545
(tRp1083
(dp1084
g548
g220
(g221
S"\x03\x00\x00\x00\xa7\xe0e>\x05/'=\xe6\x14<?"
tRp1085
(dp1086
g30
Nsg224
Nsg225
F0
sg226
F1
sg227
I1
sg228
g212
sg229
F49
sbsg7
I1
sg216
g212
sg551
g552
(NS'\x01@\x02'
NtRp1087
sbsg554
I0
sg555
Nsg556
g220
(g221
S'\x03\x00\x00\x00\x00\x000A\x00\x00\x00@\x00\x00\x10B'
tRp1088
(dp1089
g30
Nsg224
Nsg225
F0
sg226
F49
sg227
I0
sg228
g212
sg229
F49
sbsg559
g538
sg560
Nsbag9
(tRp1090
(dp1091
g12
Nsg230
Nsg543
Nsg544
g545
(tRp1092
(dp1093
g548
g220
(g221
S'\x03\x00\x00\x00\x00\x00\x00\x00\x00\x00\x00\x00\x00\x00\x80?'
tRp1094
(dp1095
g30
Nsg224
Nsg225
F0
sg226
F1
sg227
I1
sg228
g212
sg229
F18
sbsg7
I1
sg216
g212
sg551
g552
(NS'\x01@\x02'
NtRp1096
sbsg554
I0
sg555
Nsg556
g220
(g221
S'\x03\x00\x00\x00\x00\x00\x00\x00\x00\x00\x00\x00\x00\x00\x90A'
tRp1097
(dp1098
g30
Nsg224
Nsg225
F0
sg226
F18
sg227
I0
sg228
g212
sg229
F18
sbsg559
Nsg560
Nsba(dbsg543
g33
(tRp1099
S'FALSE'
aS'TRUE'
a(dbsg544
g545
(tRp1100
(dp1101
g548
g220
(g221
S'\x03\x00\x00\x00\x91\x1e(>\x8d\x89\xf4<\x0fTN?'
tRp1102
(dp1103
g30
Nsg224
Nsg225
F0
sg226
F1
sg227
I1
sg228
g212
sg229
F67
sbsg7
I1
sg216
g212
sg551
g552
(NS'\x01@\x02'
NtRp1104
sbsg554
I0
sg555
Nsg556
g220
(g221
S'\x03\x00\x00\x00\x00\x000A\x00\x00\x00@\x00\x00XB'
tRp1105
(dp1106
g30
Nsg224
Nsg225
F0
sg226
F67
sg227
I0
sg228
g212
sg229
F67
sbsg559
g523
sg560
Nsbag9
(tRp1107
(dp1108
g12
g13
(tRp1109
(dp1110
g16
g251
(tRp1111
(dp1112
g254
F1
sg255
Nsbsg7
I0
sg17
g215
sg216
g22
(g23
(dp1113
g25
Nsg26
I0
sS'name'
p1114
S'itemToListRatio'
p1115
sg29
I1
sg30
Nsg31
I0
sg32
g33
(tRp1116
S'0'
aS'1'
a(dbsg35
I0
sg36
I-1
stRp1117
(dp1118
g39
Nsbsg217
I0
sg218
I18
sg219
g220
(g221
S'\x02\x00\x00\x00\x00\x00\x80?\x00\x00\x80?'
tRp1119
(dp1120
g30
Nsg224
Nsg225
F0
sg226
F2
sg227
I0
sg228
g1117
sg229
F2
sbsbsg230
g231
(tRp1121
g9
(tRp1122
(dp1123
g12
Nsg230
Nsg543
Nsg544
g545
(tRp1124
(dp1125
g548
g220
(g221
S'\x03\x00\x00\x00\x00\x00\x00\x00\x00\x00\x80?\x00\x00\x00\x00'
tRp1126
(dp1127
g30
Nsg224
Nsg225
F0
sg226
F1
sg227
I1
sg228
g212
sg229
F1
sbsg7
I1
sg216
g212
sg551
g552
(NS'\x01@\x01'
NtRp1128
sbsg554
I0
sg555
Nsg556
g220
(g221
S'\x03\x00\x00\x00\x00\x00\x00\x00\x00\x00\x80?\x00\x00\x00\x00'
tRp1129
(dp1130
g30
Nsg224
Nsg225
F0
sg226
F1
sg227
I0
sg228
g212
sg229
F1
sbsg559
Nsg560
Nsbag9
(tRp1131
(dp1132
g12
Nsg230
Nsg543
Nsg544
g545
(tRp1133
(dp1134
g548
g220
(g221
S'\x03\x00\x00\x00\x00\x00\x00\x00\x00\x00\x00\x00\x00\x00\x80?'
tRp1135
(dp1136
g30
Nsg224
Nsg225
F0
sg226
F1
sg227
I1
sg228
g212
sg229
F1
sbsg7
I1
sg216
g212
sg551
g552
(NS'\x01@\x02'
NtRp1137
sbsg554
I0
sg555
Nsg556
g220
(g221
S'\x03\x00\x00\x00\x00\x00\x00\x00\x00\x00\x00\x00\x00\x00\x80?'
tRp1138
(dp1139
g30
Nsg224
Nsg225
F0
sg226
F1
sg227
I0
sg228
g212
sg229
F1
sbsg559
Nsg560
Nsba(dbsg543
g33
(tRp1140
S'<=1.000'
aS'>1.000'
a(dbsg544
g545
(tRp1141
(dp1142
g548
g220
(g221
S'\x03\x00\x00\x00\x00\x00\x00\x00\x00\x00\x00?\x00\x00\x00?'
tRp1143
(dp1144
g30
Nsg224
Nsg225
F0
sg226
F1
sg227
I1
sg228
g212
sg229
F2
sbsg7
I1
sg216
g212
sg551
g552
(NS'\x01@\x01'
NtRp1145
sbsg554
I0
sg555
Nsg556
g220
(g221
S'\x03\x00\x00\x00\x00\x00\x00\x00\x00\x00\x80?\x00\x00\x80?'
tRp1146
(dp1147
g30
Nsg224
Nsg225
F0
sg226
F2
sg227
I0
sg228
g212
sg229
F2
sbsg559
g1119
sg560
Nsba(dbsg543
g33
(tRp1148
S'<=6.850'
aS'>6.850'
a(dbsg544
g545
(tRp1149
(dp1150
g548
g220
(g221
S'\x03\x00\x00\x00\x13?#>C\x162=\xd7\x0eL?'
tRp1151
(dp1152
g30
Nsg224
Nsg225
F0
sg226
F1
sg227
I1
sg228
g212
sg229
F69
sbsg7
I1
sg216
g212
sg551
g552
(NS'\x01@\x02'
NtRp1153
sbsg554
I0
sg555
Nsg556
g220
(g221
S'\x03\x00\x00\x00\x00\x000A\x00\x00@@\x00\x00\\B'
tRp1154
(dp1155
g30
Nsg224
Nsg225
F0
sg226
F69
sg227
I0
sg228
g212
sg229
F69
sbsg559
g516
sg560
Nsbag9
(tRp1156
(dp1157
g12
Nsg230
Nsg543
Nsg544
g545
(tRp1158
(dp1159
g548
g220
(g221
S'\x03\x00\x00\x00\x00\x00\x80?\x00\x00\x00\x00\x00\x00\x00\x00'
tRp1160
(dp1161
g30
Nsg224
Nsg225
F0
sg226
F1
sg227
I1
sg228
g212
sg229
F1
sbsg7
I1
sg216
g212
sg551
g552
(NS'\x01@\x00'
NtRp1162
sbsg554
I0
sg555
Nsg556
g220
(g221
S'\x03\x00\x00\x00\x00\x00\x80?\x00\x00\x00\x00\x00\x00\x00\x00'
tRp1163
(dp1164
g30
Nsg224
Nsg225
F0
sg226
F1
sg227
I0
sg228
g212
sg229
F1
sbsg559
Nsg560
Nsba(dbsg543
g33
(tRp1165
S'<=20.500'
aS'>20.500'
a(dbsg544
g545
(tRp1166
(dp1167
g548
g220
(g221
S'\x03\x00\x00\x00\xf9\x8a/>\xf9\x8a/=\x92$I?'
tRp1168
(dp1169
g30
Nsg224
Nsg225
F0
sg226
F1
sg227
I1
sg228
g212
sg229
F70
sbsg7
I1
sg216
g212
sg551
g552
(NS'\x01@\x02'
NtRp1170
sbsg554
I0
sg555
Nsg556
g220
(g221
S'\x03\x00\x00\x00\x00\x00@A\x00\x00@@\x00\x00\\B'
tRp1171
(dp1172
g30
Nsg224
Nsg225
F0
sg226
F70
sg227
I0
sg228
g212
sg229
F70
sbsg559
g501
sg560
Nsbag9
(tRp1173
(dp1174
g12
Nsg230
Nsg543
Nsg544
g545
(tRp1175
(dp1176
g548
g220
(g221
S'\x03\x00\x00\x00\x00\x00\x80?\x00\x00\x00\x00\x00\x00\x00\x00'
tRp1177
(dp1178
g30
Nsg224
Nsg225
F0
sg226
F1
sg227
I1
sg228
g212
sg229
F1
sbsg7
I1
sg216
g212
sg551
g552
(NS'\x01@\x00'
NtRp1179
sbsg554
I0
sg555
Nsg556
g220
(g221
S'\x03\x00\x00\x00\x00\x00\x80?\x00\x00\x00\x00\x00\x00\x00\x00'
tRp1180
(dp1181
g30
Nsg224
Nsg225
F0
sg226
F1
sg227
I0
sg228
g212
sg229
F1
sbsg559
Nsg560
Nsba(dbsg543
g33
(tRp1182
S'<=25.000'
aS'>25.000'
a(dbsg544
g545
(tRp1183
(dp1184
g548
g220
(g221
S'\x03\x00\x00\x002~;>\x07\x12-=SOF?'
tRp1185
(dp1186
g30
Nsg224
Nsg225
F0
sg226
F1
sg227
I1
sg228
g212
sg229
F71
sbsg7
I1
sg216
g212
sg551
g552
(NS'\x01@\x02'
NtRp1187
sbsg554
I0
sg555
Nsg556
g220
(g221
S'\x03\x00\x00\x00\x00\x00PA\x00\x00@@\x00\x00\\B'
tRp1188
(dp1189
g30
Nsg224
Nsg225
F0
sg226
F71
sg227
I0
sg228
g212
sg229
F71
sbsg559
g486
sg560
Nsbag9
(tRp1190
(dp1191
g12
Nsg230
Nsg543
Nsg544
g545
(tRp1192
(dp1193
g548
g220
(g221
S'\x03\x00\x00\x00\x00\x00\x00\x00\x00\x00\x80?\x00\x00\x00\x00'
tRp1194
(dp1195
g30
Nsg224
Nsg225
F0
sg226
F1
sg227
I1
sg228
g212
sg229
F1
sbsg7
I1
sg216
g212
sg551
g552
(NS'\x01@\x01'
NtRp1196
sbsg554
I0
sg555
Nsg556
g220
(g221
S'\x03\x00\x00\x00\x00\x00\x00\x00\x00\x00\x80?\x00\x00\x00\x00'
tRp1197
(dp1198
g30
Nsg224
Nsg225
F0
sg226
F1
sg227
I0
sg228
g212
sg229
F1
sbsg559
Nsg560
Nsba(dbsg543
g33
(tRp1199
S'<=94.500'
aS'>94.500'
a(dbsg544
g545
(tRp1200
(dp1201
g548
g220
(g221
S'\x03\x00\x00\x00\x8e\xe38>9\x8ec=9\x8eC?'
tRp1202
(dp1203
g30
Nsg224
Nsg225
F0
sg226
F1
sg227
I1
sg228
g212
sg229
F72
sbsg7
I1
sg216
g212
sg551
g552
(NS'\x01@\x02'
NtRp1204
sbsg554
I0
sg555
Nsg556
g220
(g221
S'\x03\x00\x00\x00\x00\x00PA\x00\x00\x80@\x00\x00\\B'
tRp1205
(dp1206
g30
Nsg224
Nsg225
F0
sg226
F72
sg227
I0
sg228
g212
sg229
F72
sbsg559
g471
sg560
Nsbag9
(tRp1207
(dp1208
g12
Nsg230
Nsg543
Nsg544
g545
(tRp1209
(dp1210
g548
g220
(g221
S'\x03\x00\x00\x00\x00\x00\x00\x00\x00\x00\x00\x00\x00\x00\x80?'
tRp1211
(dp1212
g30
Nsg224
Nsg225
F0
sg226
F1
sg227
I1
sg228
g212
sg229
F16
sbsg7
I1
sg216
g212
sg551
g552
(NS'\x01@\x02'
NtRp1213
sbsg554
I0
sg555
Nsg556
g220
(g221
S'\x03\x00\x00\x00\x00\x00\x00\x00\x00\x00\x00\x00\x00\x00\x80A'
tRp1214
(dp1215
g30
Nsg224
Nsg225
F0
sg226
F16
sg227
I0
sg228
g212
sg229
F16
sbsg559
Nsg560
Nsba(dbsg543
g33
(tRp1216
S'<=7.580'
aS'>7.580'
a(dbsg544
g545
(tRp1217
(dp1218
g548
g220
(g221
S'\x03\x00\x00\x00\xd1E\x17>\x8c.:=\xa3\x8bN?'
tRp1219
(dp1220
g30
Nsg224
Nsg225
F0
sg226
F1
sg227
I1
sg228
g212
sg229
F88
sbsg7
I1
sg216
g212
sg551
g552
(NS'\x01@\x02'
NtRp1221
sbsg554
I0
sg555
Nsg556
g220
(g221
S'\x03\x00\x00\x00\x00\x00PA\x00\x00\x80@\x00\x00\x8eB'
tRp1222
(dp1223
g30
Nsg224
Nsg225
F0
sg226
F88
sg227
I0
sg228
g212
sg229
F88
sbsg559
g456
sg560
Nsbag9
(tRp1224
(dp1225
g12
Nsg230
Nsg543
Nsg544
g545
(tRp1226
(dp1227
g548
g220
(g221
S'\x03\x00\x00\x00\x00\x00\x00\x00\x00\x00\x00\x00\x00\x00\x80?'
tRp1228
(dp1229
g30
Nsg224
Nsg225
F0
sg226
F1
sg227
I1
sg228
g212
sg229
F32
sbsg7
I1
sg216
g212
sg551
g552
(NS'\x01@\x02'
NtRp1230
sbsg554
I0
sg555
Nsg556
g220
(g221
S'\x03\x00\x00\x00\x00\x00\x00\x00\x00\x00\x00\x00\x00\x00\x00B'
tRp1231
(dp1232
g30
Nsg224
Nsg225
F0
sg226
F32
sg227
I0
sg228
g212
sg229
F32
sbsg559
Nsg560
Nsba(dbsg543
g33
(tRp1233
S'<=1.770'
aS'>1.770'
a(dbsg544
g545
(tRp1234
(dp1235
g548
g220
(g221
S'\x03\x00\x00\x00\xde\xdd\xdd=\x89\x88\x08=\xbc\xbb[?'
tRp1236
(dp1237
g30
Nsg224
Nsg225
F0
sg226
F1
sg227
I1
sg228
g212
sg229
F120
sbsg7
I1
sg216
g212
sg551
g552
(NS'\x01@\x02'
NtRp1238
sbsg554
I0
sg555
Nsg556
g220
(g221
S'\x03\x00\x00\x00\x00\x00PA\x00\x00\x80@\x00\x00\xceB'
tRp1239
(dp1240
g30
Nsg224
Nsg225
F0
sg226
F120
sg227
I0
sg228
g212
sg229
F120
sbsg559
g441
sg560
Nsbag9
(tRp1241
(dp1242
g12
g13
(tRp1243
(dp1244
g16
g251
(tRp1245
(dp1246
g254
F24
sg255
Nsbsg7
I0
sg17
g215
sg216
g22
(g23
(dp1247
g25
Nsg26
I0
sS'name'
p1248
S'listCount'
p1249
sg29
I1
sg30
Nsg31
I0
sg32
g33
(tRp1250
S'0'
aS'1'
a(dbsg35
I0
sg36
I-1
stRp1251
(dp1252
g39
Nsbsg217
I0
sg218
I20
sg219
g220
(g221
S'\x02\x00\x00\x00\x00\x000A\x00\x00\x80?'
tRp1253
(dp1254
g30
Nsg224
Nsg225
F0
sg226
F12
sg227
I0
sg228
g1251
sg229
F12
sbsbsg230
g231
(tRp1255
g9
(tRp1256
(dp1257
g12
g13
(tRp1258
(dp1259
g16
g251
(tRp1260
(dp1261
g254
F357
sg255
Nsbsg7
I0
sg17
g215
sg216
g22
(g23
(dp1262
g25
Nsg26
I0
sS'name'
p1263
S'wordCount'
p1264
sg29
I1
sg30
Nsg31
I0
sg32
g33
(tRp1265
S'0'
aS'1'
a(dbsg35
I0
sg36
I-1
stRp1266
(dp1267
g39
Nsbsg217
I0
sg218
I29
sg219
g220
(g221
S'\x02\x00\x00\x00\x00\x00\xc0@\x00\x00\xa0@'
tRp1268
(dp1269
g30
Nsg224
Nsg225
F0
sg226
F11
sg227
I0
sg228
g1266
sg229
F11
sbsbsg230
g231
(tRp1270
g9
(tRp1271
(dp1272
g12
Nsg230
Nsg543
Nsg544
g545
(tRp1273
(dp1274
g548
g220
(g221
S'\x03\x00\x00\x00\x00\x00\x00\x00\x00\x00\x00\x00\x00\x00\x80?'
tRp1275
(dp1276
g30
Nsg224
Nsg225
F0
sg226
F1
sg227
I1
sg228
g212
sg229
F6
sbsg7
I1
sg216
g212
sg551
g552
(NS'\x01@\x02'
NtRp1277
sbsg554
I0
sg555
Nsg556
g220
(g221
S'\x03\x00\x00\x00\x00\x00\x00\x00\x00\x00\x00\x00\x00\x00\xc0@'
tRp1278
(dp1279
g30
Nsg224
Nsg225
F0
sg226
F6
sg227
I0
sg228
g212
sg229
F6
sbsg559
Nsg560
Nsbag9
(tRp1280
(dp1281
g12
g13
(tRp1282
(dp1283
g16
g251
(tRp1284
(dp1285
g254
F4.5
sg255
Nsbsg7
I0
sg17
g215
sg216
g22
(g23
(dp1286
g25
Nsg26
I0
sS'name'
p1287
S'largeImgCount'
p1288
sg29
I1
sg30
Nsg31
I0
sg32
g33
(tRp1289
S'0'
aS'1'
a(dbsg35
I0
sg36
I-1
stRp1290
(dp1291
g39
Nsbsg217
I0
sg218
I19
sg219
g220
(g221
S'\x02\x00\x00\x00\x00\x00\x00@\x00\x00@@'
tRp1292
(dp1293
g30
Nsg224
Nsg225
F0
sg226
F5
sg227
I0
sg228
g1290
sg229
F5
sbsbsg230
g231
(tRp1294
g9
(tRp1295
(dp1296
g12
Nsg230
Nsg543
Nsg544
g545
(tRp1297
(dp1298
g548
g220
(g221
S'\x03\x00\x00\x00\x00\x00\x00\x00\x00\x00\x80?\x00\x00\x00\x00'
tRp1299
(dp1300
g30
Nsg224
Nsg225
F0
sg226
F1
sg227
I1
sg228
g212
sg229
F2
sbsg7
I1
sg216
g212
sg551
g552
(NS'\x01@\x01'
NtRp1301
sbsg554
I0
sg555
Nsg556
g220
(g221
S'\x03\x00\x00\x00\x00\x00\x00\x00\x00\x00\x00@\x00\x00\x00\x00'
tRp1302
(dp1303
g30
Nsg224
Nsg225
F0
sg226
F2
sg227
I0
sg228
g212
sg229
F2
sbsg559
Nsg560
Nsbag9
(tRp1304
(dp1305
g12
Nsg230
Nsg543
Nsg544
g545
(tRp1306
(dp1307
g548
g220
(g221
S'\x03\x00\x00\x00\x00\x00\x00\x00\x00\x00\x00\x00\x00\x00\x80?'
tRp1308
(dp1309
g30
Nsg224
Nsg225
F0
sg226
F1
sg227
I1
sg228
g212
sg229
F3
sbsg7
I1
sg216
g212
sg551
g552
(NS'\x01@\x02'
NtRp1310
sbsg554
I0
sg555
Nsg556
g220
(g221
S'\x03\x00\x00\x00\x00\x00\x00\x00\x00\x00\x00\x00\x00\x00@@'
tRp1311
(dp1312
g30
Nsg224
Nsg225
F0
sg226
F3
sg227
I0
sg228
g212
sg229
F3
sbsg559
Nsg560
Nsba(dbsg543
g33
(tRp1313
S'<=4.500'
aS'>4.500'
a(dbsg544
g545
(tRp1314
(dp1315
g548
g220
(g221
S'\x03\x00\x00\x00\x00\x00\x00\x00\xcd\xcc\xcc>\x9a\x99\x19?'
tRp1316
(dp1317
g30
Nsg224
Nsg225
F0
sg226
F1
sg227
I1
sg228
g212
sg229
F5
sbsg7
I1
sg216
g212
sg551
g552
(NS'\x01@\x02'
NtRp1318
sbsg554
I0
sg555
Nsg556
g220
(g221
S'\x03\x00\x00\x00\x00\x00\x00\x00\x00\x00\x00@\x00\x00@@'
tRp1319
(dp1320
g30
Nsg224
Nsg225
F0
sg226
F5
sg227
I0
sg228
g212
sg229
F5
sbsg559
g1292
sg560
Nsba(dbsg543
g33
(tRp1321
S'<=357.000'
aS'>357.000'
a(dbsg544
g545
(tRp1322
(dp1323
g548
g220
(g221
S'\x03\x00\x00\x00\x00\x00\x00\x00\x8c.:>]tQ?'
tRp1324
(dp1325
g30
Nsg224
Nsg225
F0
sg226
F1
sg227
I1
sg228
g212
sg229
F11
sbsg7
I1
sg216
g212
sg551
g552
(NS'\x01@\x02'
NtRp1326
sbsg554
I0
sg555
Nsg556
g220
(g221
S'\x03\x00\x00\x00\x00\x00\x00\x00\x00\x00\x00@\x00\x00\x10A'
tRp1327
(dp1328
g30
Nsg224
Nsg225
F0
sg226
F11
sg227
I0
sg228
g212
sg229
F11
sbsg559
g1268
sg560
Nsbag9
(tRp1329
(dp1330
g12
Nsg230
Nsg543
Nsg544
g545
(tRp1331
(dp1332
g548
g220
(g221
S'\x03\x00\x00\x00\x00\x00\x00\x00\x00\x00\x80?\x00\x00\x00\x00'
tRp1333
(dp1334
g30
Nsg224
Nsg225
F0
sg226
F1
sg227
I1
sg228
g212
sg229
F1
sbsg7
I1
sg216
g212
sg551
g552
(NS'\x01@\x01'
NtRp1335
sbsg554
I0
sg555
Nsg556
g220
(g221
S'\x03\x00\x00\x00\x00\x00\x00\x00\x00\x00\x80?\x00\x00\x00\x00'
tRp1336
(dp1337
g30
Nsg224
Nsg225
F0
sg226
F1
sg227
I0
sg228
g212
sg229
F1
sbsg559
Nsg560
Nsba(dbsg543
g33
(tRp1338
S'<=24.000'
aS'>24.000'
a(dbsg544
g545
(tRp1339
(dp1340
g548
g220
(g221
S'\x03\x00\x00\x00\x00\x00\x00\x00\x00\x00\x80>\x00\x00@?'
tRp1341
(dp1342
g30
Nsg224
Nsg225
F0
sg226
F1
sg227
I1
sg228
g212
sg229
F12
sbsg7
I1
sg216
g212
sg551
g552
(NS'\x01@\x02'
NtRp1343
sbsg554
I0
sg555
Nsg556
g220
(g221
S'\x03\x00\x00\x00\x00\x00\x00\x00\x00\x00@@\x00\x00\x10A'
tRp1344
(dp1345
g30
Nsg224
Nsg225
F0
sg226
F12
sg227
I0
sg228
g212
sg229
F12
sbsg559
g1253
sg560
Nsba(dbsg543
g33
(tRp1346
S'<=24.000'
aS'>24.000'
a(dbsg544
g545
(tRp1347
(dp1348
g548
g220
(g221
S'\x03\x00\x00\x00m\xb2\xc9=N6Y=N6Y?'
tRp1349
(dp1350
g30
Nsg224
Nsg225
F0
sg226
F1
sg227
I1
sg228
g212
sg229
F132
sbsg7
I1
sg216
g212
sg551
g552
(NS'\x01@\x02'
NtRp1351
sbsg554
I0
sg555
Nsg556
g220
(g221
S'\x03\x00\x00\x00\x00\x00PA\x00\x00\xe0@\x00\x00\xe0B'
tRp1352
(dp1353
g30
Nsg224
Nsg225
F0
sg226
F132
sg227
I0
sg228
g212
sg229
F132
sbsg559
g426
sg560
Nsbag9
(tRp1354
(dp1355
g12
g13
(tRp1356
(dp1357
g16
g251
(tRp1358
(dp1359
g254
F1.5
sg255
Nsbsg7
I0
sg17
g215
sg216
g22
(g23
(dp1360
g25
Nsg26
I0
sS'name'
p1361
S'paraCount'
p1362
sg29
I1
sg30
Nsg31
I0
sg32
g33
(tRp1363
S'0'
aS'1'
a(dbsg35
I0
sg36
I-1
stRp1364
(dp1365
g39
Nsbsg217
I0
sg218
I23
sg219
g220
(g221
S'\x02\x00\x00\x00\x00\x00\x00@\x00\x00\x00@'
tRp1366
(dp1367
g30
Nsg224
Nsg225
F0
sg226
F4
sg227
I0
sg228
g1364
sg229
F4
sbsbsg230
g231
(tRp1368
g9
(tRp1369
(dp1370
g12
Nsg230
Nsg543
Nsg544
g545
(tRp1371
(dp1372
g548
g220
(g221
S'\x03\x00\x00\x00\x00\x00\x00\x00\x00\x00\x00\x00\x00\x00\x80?'
tRp1373
(dp1374
g30
Nsg224
Nsg225
F0
sg226
F1
sg227
I1
sg228
g212
sg229
F2
sbsg7
I1
sg216
g212
sg551
g552
(NS'\x01@\x02'
NtRp1375
sbsg554
I0
sg555
Nsg556
g220
(g221
S'\x03\x00\x00\x00\x00\x00\x00\x00\x00\x00\x00\x00\x00\x00\x00@'
tRp1376
(dp1377
g30
Nsg224
Nsg225
F0
sg226
F2
sg227
I0
sg228
g212
sg229
F2
sbsg559
Nsg560
Nsbag9
(tRp1378
(dp1379
g12
Nsg230
Nsg543
Nsg544
g545
(tRp1380
(dp1381
g548
g220
(g221
S'\x03\x00\x00\x00\x00\x00\x00\x00\x00\x00\x80?\x00\x00\x00\x00'
tRp1382
(dp1383
g30
Nsg224
Nsg225
F0
sg226
F1
sg227
I1
sg228
g212
sg229
F2
sbsg7
I1
sg216
g212
sg551
g552
(NS'\x01@\x01'
NtRp1384
sbsg554
I0
sg555
Nsg556
g220
(g221
S'\x03\x00\x00\x00\x00\x00\x00\x00\x00\x00\x00@\x00\x00\x00\x00'
tRp1385
(dp1386
g30
Nsg224
Nsg225
F0
sg226
F2
sg227
I0
sg228
g212
sg229
F2
sbsg559
Nsg560
Nsba(dbsg543
g33
(tRp1387
S'<=1.500'
aS'>1.500'
a(dbsg544
g545
(tRp1388
(dp1389
g548
g220
(g221
S'\x03\x00\x00\x00\x00\x00\x00\x00\x00\x00\x00?\x00\x00\x00?'
tRp1390
(dp1391
g30
Nsg224
Nsg225
F0
sg226
F1
sg227
I1
sg228
g212
sg229
F4
sbsg7
I1
sg216
g212
sg551
g552
(NS'\x01@\x01'
NtRp1392
sbsg554
I0
sg555
Nsg556
g220
(g221
S'\x03\x00\x00\x00\x00\x00\x00\x00\x00\x00\x00@\x00\x00\x00@'
tRp1393
(dp1394
g30
Nsg224
Nsg225
F0
sg226
F4
sg227
I0
sg228
g212
sg229
F4
sbsg559
g1366
sg560
Nsba(dbsg543
g33
(tRp1395
S'<=0.500'
aS'>0.500'
a(dbsg544
g545
(tRp1396
(dp1397
g548
g220
(g221
S'\x03\x00\x00\x00\xc4\xc3\xc3=\x88\x87\x87=\x97\x96V?'
tRp1398
(dp1399
g30
Nsg224
Nsg225
F0
sg226
F1
sg227
I1
sg228
g212
sg229
F136
sbsg7
I1
sg216
g212
sg551
g552
(NS'\x01@\x02'
NtRp1400
sbsg554
I0
sg555
Nsg556
g220
(g221
S'\x03\x00\x00\x00\x00\x00PA\x00\x00\x10A\x00\x00\xe4B'
tRp1401
(dp1402
g30
Nsg224
Nsg225
F0
sg226
F136
sg227
I0
sg228
g212
sg229
F136
sbsg559
g411
sg560
Nsbag9
(tRp1403
(dp1404
g12
g13
(tRp1405
(dp1406
g16
g251
(tRp1407
(dp1408
g254
F0.58499997854232788
sg255
Nsbsg7
I0
sg17
g215
sg216
g22
(g23
(dp1409
g25
Nsg26
I0
sS'name'
p1410
S'rowToTableRatio'
p1411
sg29
I1
sg30
Nsg31
I0
sg32
g33
(tRp1412
S'0'
aS'1'
a(dbsg35
I0
sg36
I-1
stRp1413
(dp1414
g39
Nsbsg217
I0
sg218
I25
sg219
g220
(g221
S'\x02\x00\x00\x00\x00\x00\x00@\x00\x00@@'
tRp1415
(dp1416
g30
Nsg224
Nsg225
F0
sg226
F5
sg227
I0
sg228
g1413
sg229
F5
sbsbsg230
g231
(tRp1417
g9
(tRp1418
(dp1419
g12
Nsg230
Nsg543
Nsg544
g545
(tRp1420
(dp1421
g548
g220
(g221
S'\x03\x00\x00\x00\x00\x00\x00\x00\x00\x00\x00\x00\x00\x00\x80?'
tRp1422
(dp1423
g30
Nsg224
Nsg225
F0
sg226
F1
sg227
I1
sg228
g212
sg229
F2
sbsg7
I1
sg216
g212
sg551
g552
(NS'\x01@\x02'
NtRp1424
sbsg554
I0
sg555
Nsg556
g220
(g221
S'\x03\x00\x00\x00\x00\x00\x00\x00\x00\x00\x00\x00\x00\x00\x00@'
tRp1425
(dp1426
g30
Nsg224
Nsg225
F0
sg226
F2
sg227
I0
sg228
g212
sg229
F2
sbsg559
Nsg560
Nsbag9
(tRp1427
(dp1428
g12
Nsg230
Nsg543
Nsg544
g545
(tRp1429
(dp1430
g548
g220
(g221
S'\x03\x00\x00\x00\x00\x00\x80?\x00\x00\x00\x00\x00\x00\x00\x00'
tRp1431
(dp1432
g30
Nsg224
Nsg225
F0
sg226
F1
sg227
I1
sg228
g212
sg229
F3
sbsg7
I1
sg216
g212
sg551
g552
(NS'\x01@\x00'
NtRp1433
sbsg554
I0
sg555
Nsg556
g220
(g221
S'\x03\x00\x00\x00\x00\x00@@\x00\x00\x00\x00\x00\x00\x00\x00'
tRp1434
(dp1435
g30
Nsg224
Nsg225
F0
sg226
F3
sg227
I0
sg228
g212
sg229
F3
sbsg559
Nsg560
Nsba(dbsg543
g33
(tRp1436
S'<=0.585'
aS'>0.585'
a(dbsg544
g545
(tRp1437
(dp1438
g548
g220
(g221
S'\x03\x00\x00\x00\x9a\x99\x19?\x00\x00\x00\x00\xcd\xcc\xcc>'
tRp1439
(dp1440
g30
Nsg224
Nsg225
F0
sg226
F1
sg227
I1
sg228
g212
sg229
F5
sbsg7
I1
sg216
g212
sg551
g552
(NS'\x01@\x00'
NtRp1441
sbsg554
I0
sg555
Nsg556
g220
(g221
S'\x03\x00\x00\x00\x00\x00@@\x00\x00\x00\x00\x00\x00\x00@'
tRp1442
(dp1443
g30
Nsg224
Nsg225
F0
sg226
F5
sg227
I0
sg228
g212
sg229
F5
sbsg559
g1415
sg560
Nsba(dbsg543
g33
(tRp1444
S'<=1.500'
aS'>1.500'
a(dbsg544
g545
(tRp1445
(dp1446
g548
g220
(g221
S'\x03\x00\x00\x00\xace\xe8=1\xb9\x82=$\x9cR?'
tRp1447
(dp1448
g30
Nsg224
Nsg225
F0
sg226
F1
sg227
I1
sg228
g212
sg229
F141
sbsg7
I1
sg216
g212
sg551
g552
(NS'\x01@\x02'
NtRp1449
sbsg554
I0
sg555
Nsg556
g220
(g221
S'\x03\x00\x00\x00\x00\x00\x80A\x00\x00\x10A\x00\x00\xe8B'
tRp1450
(dp1451
g30
Nsg224
Nsg225
F0
sg226
F141
sg227
I0
sg228
g212
sg229
F141
sbsg559
g396
sg560
Nsbag9
(tRp1452
(dp1453
g12
Nsg230
Nsg543
Nsg544
g545
(tRp1454
(dp1455
g548
g220
(g221
S'\x03\x00\x00\x00\x00\x00\x80?\x00\x00\x00\x00\x00\x00\x00\x00'
tRp1456
(dp1457
g30
Nsg224
Nsg225
F0
sg226
F1
sg227
I1
sg228
g212
sg229
F5
sbsg7
I1
sg216
g212
sg551
g552
(NS'\x01@\x00'
NtRp1458
sbsg554
I0
sg555
Nsg556
g220
(g221
S'\x03\x00\x00\x00\x00\x00\xa0@\x00\x00\x00\x00\x00\x00\x00\x00'
tRp1459
(dp1460
g30
Nsg224
Nsg225
F0
sg226
F5
sg227
I0
sg228
g212
sg229
F5
sbsg559
Nsg560
Nsba(dbsg543
g33
(tRp1461
S'<=9.500'
aS'>9.500'
a(dbsg544
g545
(tRp1462
(dp1463
g548
g220
(g221
S'\x03\x00\x00\x00\xa5I\x13>?~|=\xb3eK?'
tRp1464
(dp1465
g30
Nsg224
Nsg225
F0
sg226
F1
sg227
I1
sg228
g212
sg229
F146
sbsg7
I1
sg216
g212
sg551
g552
(NS'\x01@\x02'
NtRp1466
sbsg554
I0
sg555
Nsg556
g220
(g221
S'\x03\x00\x00\x00\x00\x00\xa8A\x00\x00\x10A\x00\x00\xe8B'
tRp1467
(dp1468
g30
Nsg224
Nsg225
F0
sg226
F146
sg227
I0
sg228
g212
sg229
F146
sbsg559
g381
sg560
Nsbag9
(tRp1469
(dp1470
g12
g13
(tRp1471
(dp1472
g16
g251
(tRp1473
(dp1474
g254
F1
sg255
Nsbsg7
I0
sg17
g215
sg216
g22
(g23
(dp1475
g25
Nsg26
I0
sS'name'
p1476
S'imgCount'
p1477
sg29
I1
sg30
Nsg31
I0
sg32
g33
(tRp1478
S'0'
aS'1'
a(dbsg35
I0
sg36
I-1
stRp1479
(dp1480
g39
Nsbsg217
I0
sg218
I14
sg219
g220
(g221
S'\x02\x00\x00\x00\x00\x00@@\x00\x00\x04C'
tRp1481
(dp1482
g30
Nsg224
Nsg225
F0
sg226
F135
sg227
I0
sg228
g1479
sg229
F135
sbsbsg230
g231
(tRp1483
g9
(tRp1484
(dp1485
g12
g13
(tRp1486
(dp1487
g16
g251
(tRp1488
(dp1489
g254
F25.5
sg255
Nsbsg7
I0
sg17
g215
sg216
g22
(g23
(dp1490
g25
Nsg26
I0
sS'name'
p1491
S'externalLinks'
p1492
sg29
I1
sg30
Nsg31
I0
sg32
g33
(tRp1493
S'0'
aS'1'
a(dbsg35
I0
sg36
I-1
stRp1494
(dp1495
g39
Nsbsg217
I0
sg218
I3
sg219
g220
(g221
S'\x02\x00\x00\x00\x00\x00\x00@\x00\x00\x80?'
tRp1496
(dp1497
g30
Nsg224
Nsg225
F0
sg226
F3
sg227
I0
sg228
g1494
sg229
F3
sbsbsg230
g231
(tRp1498
g9
(tRp1499
(dp1500
g12
Nsg230
Nsg543
Nsg544
g545
(tRp1501
(dp1502
g548
g220
(g221
S'\x03\x00\x00\x00\x00\x00\x00\x00\x00\x00\x00\x00\x00\x00\x80?'
tRp1503
(dp1504
g30
Nsg224
Nsg225
F0
sg226
F1
sg227
I1
sg228
g212
sg229
F2
sbsg7
I1
sg216
g212
sg551
g552
(NS'\x01@\x02'
NtRp1505
sbsg554
I0
sg555
Nsg556
g220
(g221
S'\x03\x00\x00\x00\x00\x00\x00\x00\x00\x00\x00\x00\x00\x00\x00@'
tRp1506
(dp1507
g30
Nsg224
Nsg225
F0
sg226
F2
sg227
I0
sg228
g212
sg229
F2
sbsg559
Nsg560
Nsbag9
(tRp1508
(dp1509
g12
Nsg230
Nsg543
Nsg544
g545
(tRp1510
(dp1511
g548
g220
(g221
S'\x03\x00\x00\x00\x00\x00\x00\x00\x00\x00\x80?\x00\x00\x00\x00'
tRp1512
(dp1513
g30
Nsg224
Nsg225
F0
sg226
F1
sg227
I1
sg228
g212
sg229
F1
sbsg7
I1
sg216
g212
sg551
g552
(NS'\x01@\x01'
NtRp1514
sbsg554
I0
sg555
Nsg556
g220
(g221
S'\x03\x00\x00\x00\x00\x00\x00\x00\x00\x00\x80?\x00\x00\x00\x00'
tRp1515
(dp1516
g30
Nsg224
Nsg225
F0
sg226
F1
sg227
I0
sg228
g212
sg229
F1
sbsg559
Nsg560
Nsba(dbsg543
g33
(tRp1517
S'<=25.500'
aS'>25.500'
a(dbsg544
g545
(tRp1518
(dp1519
g548
g220
(g221
S'\x03\x00\x00\x00\x00\x00\x00\x00\xab\xaa\xaa>\xab\xaa*?'
tRp1520
(dp1521
g30
Nsg224
Nsg225
F0
sg226
F1
sg227
I1
sg228
g212
sg229
F3
sbsg7
I1
sg216
g212
sg551
g552
(NS'\x01@\x02'
NtRp1522
sbsg554
I0
sg555
Nsg556
g220
(g221
S'\x03\x00\x00\x00\x00\x00\x00\x00\x00\x00\x80?\x00\x00\x00@'
tRp1523
(dp1524
g30
Nsg224
Nsg225
F0
sg226
F3
sg227
I0
sg228
g212
sg229
F3
sbsg559
g1496
sg560
Nsbag9
(tRp1525
(dp1526
g12
g13
(tRp1527
(dp1528
g16
g251
(tRp1529
(dp1530
g254
F701
sg255
Nsbsg7
I0
sg17
g215
sg216
g22
(g23
(dp1531
g25
Nsg26
I0
sS'name'
p1532
S'wordToParaRatio'
p1533
sg29
I1
sg30
Nsg31
I0
sg32
g33
(tRp1534
S'0'
aS'1'
a(dbsg35
I0
sg36
I-1
stRp1535
(dp1536
g39
Nsbsg217
I0
sg218
I30
sg219
g220
(g221
S'\x02\x00\x00\x00\x00\x00\x00C\x00\x00\x80@'
tRp1537
(dp1538
g30
Nsg224
Nsg225
F0
sg226
F132
sg227
I0
sg228
g1535
sg229
F132
sbsbsg230
g231
(tRp1539
g9
(tRp1540
(dp1541
g12
Nsg230
Nsg543
Nsg544
g545
(tRp1542
(dp1543
g548
g220
(g221
S'\x03\x00\x00\x00\x00\x00\x00\x00\x00\x00\x00\x00\x00\x00\x80?'
tRp1544
(dp1545
g30
Nsg224
Nsg225
F0
sg226
F1
sg227
I1
sg228
g212
sg229
F128
sbsg7
I1
sg216
g212
sg551
g552
(NS'\x01@\x02'
NtRp1546
sbsg554
I0
sg555
Nsg556
g220
(g221
S'\x03\x00\x00\x00\x00\x00\x00\x00\x00\x00\x00\x00\x00\x00\x00C'
tRp1547
(dp1548
g30
Nsg224
Nsg225
F0
sg226
F128
sg227
I0
sg228
g212
sg229
F128
sbsg559
Nsg560
Nsbag9
(tRp1549
(dp1550
g12
g13
(tRp1551
(dp1552
g16
g251
(tRp1553
(dp1554
g254
F191
sg255
Nsbsg7
I0
sg17
g215
sg216
g22
(g23
(dp1555
g25
Nsg26
I0
sS'name'
p1556
S'totLinks'
p1557
sg29
I1
sg30
Nsg31
I0
sg32
g33
(tRp1558
S'0'
aS'1'
a(dbsg35
I0
sg36
I-1
stRp1559
(dp1560
g39
Nsbsg217
I0
sg218
I28
sg219
g220
(g221
S'\x02\x00\x00\x00\x00\x00\x80?\x00\x00@@'
tRp1561
(dp1562
g30
Nsg224
Nsg225
F0
sg226
F4
sg227
I0
sg228
g1559
sg229
F4
sbsbsg230
g231
(tRp1563
g9
(tRp1564
(dp1565
g12
Nsg230
Nsg543
Nsg544
g545
(tRp1566
(dp1567
g548
g220
(g221
S'\x03\x00\x00\x00\x00\x00\x80?\x00\x00\x00\x00\x00\x00\x00\x00'
tRp1568
(dp1569
g30
Nsg224
Nsg225
F0
sg226
F1
sg227
I1
sg228
g212
sg229
F1
sbsg7
I1
sg216
g212
sg551
g552
(NS'\x01@\x00'
NtRp1570
sbsg554
I0
sg555
Nsg556
g220
(g221
S'\x03\x00\x00\x00\x00\x00\x80?\x00\x00\x00\x00\x00\x00\x00\x00'
tRp1571
(dp1572
g30
Nsg224
Nsg225
F0
sg226
F1
sg227
I0
sg228
g212
sg229
F1
sbsg559
Nsg560
Nsbag9
(tRp1573
(dp1574
g12
Nsg230
Nsg543
Nsg544
g545
(tRp1575
(dp1576
g548
g220
(g221
S'\x03\x00\x00\x00\x00\x00\x00\x00\x00\x00\x00\x00\x00\x00\x80?'
tRp1577
(dp1578
g30
Nsg224
Nsg225
F0
sg226
F1
sg227
I1
sg228
g212
sg229
F3
sbsg7
I1
sg216
g212
sg551
g552
(NS'\x01@\x02'
NtRp1579
sbsg554
I0
sg555
Nsg556
g220
(g221
S'\x03\x00\x00\x00\x00\x00\x00\x00\x00\x00\x00\x00\x00\x00@@'
tRp1580
(dp1581
g30
Nsg224
Nsg225
F0
sg226
F3
sg227
I0
sg228
g212
sg229
F3
sbsg559
Nsg560
Nsba(dbsg543
g33
(tRp1582
S'<=191.000'
aS'>191.000'
a(dbsg544
g545
(tRp1583
(dp1584
g548
g220
(g221
S'\x03\x00\x00\x00\x00\x00\x80>\x00\x00\x00\x00\x00\x00@?'
tRp1585
(dp1586
g30
Nsg224
Nsg225
F0
sg226
F1
sg227
I1
sg228
g212
sg229
F4
sbsg7
I1
sg216
g212
sg551
g552
(NS'\x01@\x02'
NtRp1587
sbsg554
I0
sg555
Nsg556
g220
(g221
S'\x03\x00\x00\x00\x00\x00\x80?\x00\x00\x00\x00\x00\x00@@'
tRp1588
(dp1589
g30
Nsg224
Nsg225
F0
sg226
F4
sg227
I0
sg228
g212
sg229
F4
sbsg559
g1561
sg560
Nsba(dbsg543
g33
(tRp1590
S'<=701.000'
aS'>701.000'
a(dbsg544
g545
(tRp1591
(dp1592
g548
g220
(g221
S'\x03\x00\x00\x00\x10>\xf8;\x00\x00\x00\x00\x84\x0f~?'
tRp1593
(dp1594
g30
Nsg224
Nsg225
F0
sg226
F1
sg227
I1
sg228
g212
sg229
F132
sbsg7
I1
sg216
g212
sg551
g552
(NS'\x01@\x02'
NtRp1595
sbsg554
I0
sg555
Nsg556
g220
(g221
S'\x03\x00\x00\x00\x00\x00\x80?\x00\x00\x00\x00\x00\x00\x03C'
tRp1596
(dp1597
g30
Nsg224
Nsg225
F0
sg226
F132
sg227
I0
sg228
g212
sg229
F132
sbsg559
g1537
sg560
Nsba(dbsg543
g33
(tRp1598
S'<=1.000'
aS'>1.000'
a(dbsg544
g545
(tRp1599
(dp1600
g548
g220
(g221
S'\x03\x00\x00\x00\xd6\xb9\xf2;\xd6\xb9\xf2;\x195|?'
tRp1601
(dp1602
g30
Nsg224
Nsg225
F0
sg226
F1
sg227
I1
sg228
g212
sg229
F135
sbsg7
I1
sg216
g212
sg551
g552
(NS'\x01@\x02'
NtRp1603
sbsg554
I0
sg555
Nsg556
g220
(g221
S'\x03\x00\x00\x00\x00\x00\x80?\x00\x00\x80?\x00\x00\x05C'
tRp1604
(dp1605
g30
Nsg224
Nsg225
F0
sg226
F135
sg227
I0
sg228
g212
sg229
F135
sbsg559
g1481
sg560
Nsba(dbsg543
g33
(tRp1606
S'<=2.500'
aS'>2.500'
a(dbsg544
g545
(tRp1607
(dp1608
g548
g220
(g221
S'\x03\x00\x00\x00vW\xa0=\xdf\xc3\x11=\xd3\xd8b?'
tRp1609
(dp1610
g30
Nsg224
Nsg225
F0
sg226
F1
sg227
I1
sg228
g212
sg229
F281
sbsg7
I1
sg216
g212
sg551
g552
(NS'\x01@\x02'
NtRp1611
sbsg554
I0
sg555
Nsg556
g220
(g221
S'\x03\x00\x00\x00\x00\x00\xb0A\x00\x00 A\x00\x00yC'
tRp1612
(dp1613
g30
Nsg224
Nsg225
F0
sg226
F281
sg227
I0
sg228
g212
sg229
F281
sbsg559
g366
sg560
Nsbag9
(tRp1614
(dp1615
g12
g13
(tRp1616
(dp1617
g16
g251
(tRp1618
(dp1619
g254
F87
sg255
Nsbsg7
I0
sg17
g215
sg216
g22
(g23
(dp1620
g25
Nsg26
I0
sS'name'
p1621
S'tableCount'
p1622
sg29
I1
sg30
Nsg31
I0
sg32
g33
(tRp1623
S'0'
aS'1'
a(dbsg35
I0
sg36
I-1
stRp1624
(dp1625
g39
Nsbsg217
I0
sg218
I27
sg219
g220
(g221
S'\x02\x00\x00\x00\x00\x00@@\x00\x00\x80?'
tRp1626
(dp1627
g30
Nsg224
Nsg225
F0
sg226
F4
sg227
I0
sg228
g1624
sg229
F4
sbsbsg230
g231
(tRp1628
g9
(tRp1629
(dp1630
g12
Nsg230
Nsg543
Nsg544
g545
(tRp1631
(dp1632
g548
g220
(g221
S'\x03\x00\x00\x00\x00\x00\x80?\x00\x00\x00\x00\x00\x00\x00\x00'
tRp1633
(dp1634
g30
Nsg224
Nsg225
F0
sg226
F1
sg227
I1
sg228
g212
sg229
F3
sbsg7
I1
sg216
g212
sg551
g552
(NS'\x01@\x00'
NtRp1635
sbsg554
I0
sg555
Nsg556
g220
(g221
S'\x03\x00\x00\x00\x00\x00@@\x00\x00\x00\x00\x00\x00\x00\x00'
tRp1636
(dp1637
g30
Nsg224
Nsg225
F0
sg226
F3
sg227
I0
sg228
g212
sg229
F3
sbsg559
Nsg560
Nsbag9
(tRp1638
(dp1639
g12
Nsg230
Nsg543
Nsg544
g545
(tRp1640
(dp1641
g548
g220
(g221
S'\x03\x00\x00\x00\x00\x00\x00\x00\x00\x00\x00\x00\x00\x00\x80?'
tRp1642
(dp1643
g30
Nsg224
Nsg225
F0
sg226
F1
sg227
I1
sg228
g212
sg229
F1
sbsg7
I1
sg216
g212
sg551
g552
(NS'\x01@\x02'
NtRp1644
sbsg554
I0
sg555
Nsg556
g220
(g221
S'\x03\x00\x00\x00\x00\x00\x00\x00\x00\x00\x00\x00\x00\x00\x80?'
tRp1645
(dp1646
g30
Nsg224
Nsg225
F0
sg226
F1
sg227
I0
sg228
g212
sg229
F1
sbsg559
Nsg560
Nsba(dbsg543
g33
(tRp1647
S'<=87.000'
aS'>87.000'
a(dbsg544
g545
(tRp1648
(dp1649
g548
g220
(g221
S'\x03\x00\x00\x00\x00\x00@?\x00\x00\x00\x00\x00\x00\x80>'
tRp1650
(dp1651
g30
Nsg224
Nsg225
F0
sg226
F1
sg227
I1
sg228
g212
sg229
F4
sbsg7
I1
sg216
g212
sg551
g552
(NS'\x01@\x00'
NtRp1652
sbsg554
I0
sg555
Nsg556
g220
(g221
S'\x03\x00\x00\x00\x00\x00@@\x00\x00\x00\x00\x00\x00\x80?'
tRp1653
(dp1654
g30
Nsg224
Nsg225
F0
sg226
F4
sg227
I0
sg228
g212
sg229
F4
sbsg559
g1626
sg560
Nsba(dbsg543
g33
(tRp1655
S'<=70.500'
aS'>70.500'
a(dbsg544
g545
(tRp1656
(dp1657
g548
g220
(g221
S'\x03\x00\x00\x00-\xa6\xb3=$\xb8\x0f=\xb8\x8f`?'
tRp1658
(dp1659
g30
Nsg224
Nsg225
F0
sg226
F1
sg227
I1
sg228
g212
sg229
F285
sbsg7
I1
sg216
g212
sg551
g552
(NS'\x01@\x02'
NtRp1660
sbsg554
I0
sg555
Nsg556
g220
(g221
S'\x03\x00\x00\x00\x00\x00\xc8A\x00\x00 A\x00\x00zC'
tRp1661
(dp1662
g30
Nsg224
Nsg225
F0
sg226
F285
sg227
I0
sg228
g212
sg229
F285
sbsg559
g351
sg560
Nsbag9
(tRp1663
(dp1664
g12
g13
(tRp1665
(dp1666
g16
g251
(tRp1667
(dp1668
g254
F6
sg255
Nsbsg7
I0
sg17
g215
sg216
g22
(g23
(dp1669
g25
Nsg26
I0
sS'name'
p1670
S'orgFreqWordCount'
p1671
sg29
I1
sg30
Nsg31
I0
sg32
g33
(tRp1672
S'0'
aS'1'
a(dbsg35
I0
sg36
I-1
stRp1673
(dp1674
g39
Nsbsg217
I0
sg218
I22
sg219
g220
(g221
S'\x02\x00\x00\x00\x00\x00\x00@\x00\x00\x80?'
tRp1675
(dp1676
g30
Nsg224
Nsg225
F0
sg226
F3
sg227
I0
sg228
g1673
sg229
F3
sbsbsg230
g231
(tRp1677
g9
(tRp1678
(dp1679
g12
Nsg230
Nsg543
Nsg544
g545
(tRp1680
(dp1681
g548
g220
(g221
S'\x03\x00\x00\x00\x00\x00\x00\x00\x00\x00\x80?\x00\x00\x00\x00'
tRp1682
(dp1683
g30
Nsg224
Nsg225
F0
sg226
F1
sg227
I1
sg228
g212
sg229
F2
sbsg7
I1
sg216
g212
sg551
g552
(NS'\x01@\x01'
NtRp1684
sbsg554
I0
sg555
Nsg556
g220
(g221
S'\x03\x00\x00\x00\x00\x00\x00\x00\x00\x00\x00@\x00\x00\x00\x00'
tRp1685
(dp1686
g30
Nsg224
Nsg225
F0
sg226
F2
sg227
I0
sg228
g212
sg229
F2
sbsg559
Nsg560
Nsbag9
(tRp1687
(dp1688
g12
Nsg230
Nsg543
Nsg544
g545
(tRp1689
(dp1690
g548
g220
(g221
S'\x03\x00\x00\x00\x00\x00\x00\x00\x00\x00\x00\x00\x00\x00\x80?'
tRp1691
(dp1692
g30
Nsg224
Nsg225
F0
sg226
F1
sg227
I1
sg228
g212
sg229
F1
sbsg7
I1
sg216
g212
sg551
g552
(NS'\x01@\x02'
NtRp1693
sbsg554
I0
sg555
Nsg556
g220
(g221
S'\x03\x00\x00\x00\x00\x00\x00\x00\x00\x00\x00\x00\x00\x00\x80?'
tRp1694
(dp1695
g30
Nsg224
Nsg225
F0
sg226
F1
sg227
I0
sg228
g212
sg229
F1
sbsg559
Nsg560
Nsba(dbsg543
g33
(tRp1696
S'<=6.000'
aS'>6.000'
a(dbsg544
g545
(tRp1697
(dp1698
g548
g220
(g221
S'\x03\x00\x00\x00\x00\x00\x00\x00\xab\xaa*?\xab\xaa\xaa>'
tRp1699
(dp1700
g30
Nsg224
Nsg225
F0
sg226
F1
sg227
I1
sg228
g212
sg229
F3
sbsg7
I1
sg216
g212
sg551
g552
(NS'\x01@\x01'
NtRp1701
sbsg554
I0
sg555
Nsg556
g220
(g221
S'\x03\x00\x00\x00\x00\x00\x00\x00\x00\x00\x00@\x00\x00\x80?'
tRp1702
(dp1703
g30
Nsg224
Nsg225
F0
sg226
F3
sg227
I0
sg228
g212
sg229
F3
sbsg559
g1675
sg560
Nsba(dbsg543
g33
(tRp1704
S'<=4.500'
aS'>4.500'
a(dbsg544
g545
(tRp1705
(dp1706
g548
g220
(g221
S'\x03\x00\x00\x00\x1c\xc7\xb1=\xab\xaa*=r\x1c_?'
tRp1707
(dp1708
g30
Nsg224
Nsg225
F0
sg226
F1
sg227
I1
sg228
g212
sg229
F288
sbsg7
I1
sg216
g212
sg551
g552
(NS'\x01@\x02'
NtRp1709
sbsg554
I0
sg555
Nsg556
g220
(g221
S'\x03\x00\x00\x00\x00\x00\xc8A\x00\x00@A\x00\x00{C'
tRp1710
(dp1711
g30
Nsg224
Nsg225
F0
sg226
F288
sg227
I0
sg228
g212
sg229
F288
sbsg559
g336
sg560
Nsbag9
(tRp1712
(dp1713
g12
Nsg230
Nsg543
Nsg544
g545
(tRp1714
(dp1715
g548
g220
(g221
S'\x03\x00\x00\x00\x00\x00\x80?\x00\x00\x00\x00\x00\x00\x00\x00'
tRp1716
(dp1717
g30
Nsg224
Nsg225
F0
sg226
F1
sg227
I1
sg228
g212
sg229
F1
sbsg7
I1
sg216
g212
sg551
g552
(NS'\x01@\x00'
NtRp1718
sbsg554
I0
sg555
Nsg556
g220
(g221
S'\x03\x00\x00\x00\x00\x00\x80?\x00\x00\x00\x00\x00\x00\x00\x00'
tRp1719
(dp1720
g30
Nsg224
Nsg225
F0
sg226
F1
sg227
I0
sg228
g212
sg229
F1
sbsg559
Nsg560
Nsba(dbsg543
g33
(tRp1721
S'<=14.750'
aS'>14.750'
a(dbsg544
g545
(tRp1722
(dp1723
g548
g220
(g221
S'\x03\x00\x00\x00\xc7?\xb8=}\x13*=\xcfV^?'
tRp1724
(dp1725
g30
Nsg224
Nsg225
F0
sg226
F1
sg227
I1
sg228
g212
sg229
F289
sbsg7
I1
sg216
g212
sg551
g552
(NS'\x01@\x02'
NtRp1726
sbsg554
I0
sg555
Nsg556
g220
(g221
S'\x03\x00\x00\x00\x00\x00\xd0A\x00\x00@A\x00\x00{C'
tRp1727
(dp1728
g30
Nsg224
Nsg225
F0
sg226
F289
sg227
I0
sg228
g212
sg229
F289
sbsg559
g321
sg560
Nsbag9
(tRp1729
(dp1730
g12
Nsg230
Nsg543
Nsg544
g545
(tRp1731
(dp1732
g548
g220
(g221
S'\x03\x00\x00\x00\x00\x00\x80?\x00\x00\x00\x00\x00\x00\x00\x00'
tRp1733
(dp1734
g30
Nsg224
Nsg225
F0
sg226
F1
sg227
I1
sg228
g212
sg229
F2
sbsg7
I1
sg216
g212
sg551
g552
(NS'\x01@\x00'
NtRp1735
sbsg554
I0
sg555
Nsg556
g220
(g221
S'\x03\x00\x00\x00\x00\x00\x00@\x00\x00\x00\x00\x00\x00\x00\x00'
tRp1736
(dp1737
g30
Nsg224
Nsg225
F0
sg226
F2
sg227
I0
sg228
g212
sg229
F2
sbsg559
Nsg560
Nsba(dbsg543
g33
(tRp1738
S'FALSE'
aS'TRUE'
a(dbsg544
g545
(tRp1739
(dp1740
g548
g220
(g221
S'\x03\x00\x00\x00\xf5\x0e\xc5=?\xe8(=\x9d\xcf\\?'
tRp1741
(dp1742
g30
Nsg224
Nsg225
F0
sg226
F1
sg227
I1
sg228
g212
sg229
F291
sbsg7
I1
sg216
g212
sg551
g552
(NS'\x01@\x02'
NtRp1743
sbsg554
I0
sg555
Nsg556
g220
(g221
S'\x03\x00\x00\x00\x00\x00\xe0A\x00\x00@A\x00\x00{C'
tRp1744
(dp1745
g30
Nsg224
Nsg225
F0
sg226
F291
sg227
I0
sg228
g212
sg229
F291
sbsg559
g306
sg560
Nsbag9
(tRp1746
(dp1747
g12
Nsg230
Nsg543
Nsg544
g545
(tRp1748
(dp1749
g548
g220
(g221
S'\x03\x00\x00\x00\x00\x00\x80?\x00\x00\x00\x00\x00\x00\x00\x00'
tRp1750
(dp1751
g30
Nsg224
Nsg225
F0
sg226
F1
sg227
I1
sg228
g212
sg229
F7
sbsg7
I1
sg216
g212
sg551
g552
(NS'\x01@\x00'
NtRp1752
sbsg554
I0
sg555
Nsg556
g220
(g221
S'\x03\x00\x00\x00\x00\x00\xe0@\x00\x00\x00\x00\x00\x00\x00\x00'
tRp1753
(dp1754
g30
Nsg224
Nsg225
F0
sg226
F7
sg227
I0
sg228
g212
sg229
F7
sbsg559
Nsg560
Nsba(dbsg543
g33
(tRp1755
S'<=35.000'
aS'>35.000'
a(dbsg544
g545
(tRp1756
(dp1757
g548
g220
(g221
S'\x03\x00\x00\x00s\x89\xf0=\x89\xf0$=\xc9\x9fW?'
tRp1758
(dp1759
g30
Nsg224
Nsg225
F0
sg226
F1
sg227
I1
sg228
g212
sg229
F298
sbsg7
I1
sg216
g212
sg551
g552
(NS'\x01@\x02'
NtRp1760
sbsg554
I0
sg555
Nsg556
g220
(g221
S'\x03\x00\x00\x00\x00\x00\x0cB\x00\x00@A\x00\x00{C'
tRp1761
(dp1762
g30
Nsg224
Nsg225
F0
sg226
F298
sg227
I0
sg228
g212
sg229
F298
sbsg559
g299
sg560
Nsbag9
(tRp1763
(dp1764
g12
Nsg230
Nsg543
Nsg544
g545
(tRp1765
(dp1766
g548
g220
(g221
S'\x03\x00\x00\x00\x00\x00\x80?\x00\x00\x00\x00\x00\x00\x00\x00'
tRp1767
(dp1768
g30
Nsg224
Nsg225
F0
sg226
F1
sg227
I1
sg228
g212
sg229
F9
sbsg7
I1
sg216
g212
sg551
g552
(NS'\x01@\x00'
NtRp1769
sbsg554
I0
sg555
Nsg556
g220
(g221
S'\x03\x00\x00\x00\x00\x00\x10A\x00\x00\x00\x00\x00\x00\x00\x00'
tRp1770
(dp1771
g30
Nsg224
Nsg225
F0
sg226
F9
sg227
I0
sg228
g212
sg229
F9
sbsg559
Nsg560
Nsba(dbsg543
g33
(tRp1772
S'FALSE'
aS'TRUE'
a(dbsg544
g545
(tRp1773
(dp1774
g548
g220
(g221
S'\x03\x00\x00\x00!\xc3\x12>\xaf\x1a =\x8dMQ?'
tRp1775
(dp1776
g30
Nsg224
Nsg225
F0
sg226
F1
sg227
I1
sg228
g212
sg229
F307
sbsg7
I1
sg216
g212
sg551
g552
(NS'\x01@\x02'
NtRp1777
sbsg554
I0
sg555
Nsg556
g220
(g221
S'\x03\x00\x00\x00\x00\x000B\x00\x00@A\x00\x00{C'
tRp1778
(dp1779
g30
Nsg224
Nsg225
F0
sg226
F307
sg227
I0
sg228
g212
sg229
F307
sbsg559
g284
sg560
Nsbag9
(tRp1780
(dp1781
g12
Nsg230
Nsg543
Nsg544
g545
(tRp1782
(dp1783
g548
g220
(g221
S'\x03\x00\x00\x00\x00\x00\x00\x00\x00\x00\x80?\x00\x00\x00\x00'
tRp1784
(dp1785
g30
Nsg224
Nsg225
F0
sg226
F1
sg227
I1
sg228
g212
sg229
F1
sbsg7
I1
sg216
g212
sg551
g552
(NS'\x01@\x01'
NtRp1786
sbsg554
I0
sg555
Nsg556
g220
(g221
S'\x03\x00\x00\x00\x00\x00\x00\x00\x00\x00\x80?\x00\x00\x00\x00'
tRp1787
(dp1788
g30
Nsg224
Nsg225
F0
sg226
F1
sg227
I0
sg228
g212
sg229
F1
sbsg559
Nsg560
Nsba(dbsg543
g33
(tRp1789
S'<=46.500'
aS'>46.500'
a(dbsg544
g545
(tRp1790
(dp1791
g548
g220
(g221
S'\x03\x00\x00\x00%I\x12>\x14\xe2,=\x96\x9fP?'
tRp1792
(dp1793
g30
Nsg224
Nsg225
F0
sg226
F1
sg227
I1
sg228
g212
sg229
F308
sbsg7
I1
sg216
g212
sg551
g552
(NS'\x01@\x02'
NtRp1794
sbsg554
I0
sg555
Nsg556
g220
(g221
S'\x03\x00\x00\x00\x00\x000B\x00\x00PA\x00\x00{C'
tRp1795
(dp1796
g30
Nsg224
Nsg225
F0
sg226
F308
sg227
I0
sg228
g212
sg229
F308
sbsg559
g277
sg560
Nsbag9
(tRp1797
(dp1798
g12
Nsg230
Nsg543
Nsg544
g545
(tRp1799
(dp1800
g548
g220
(g221
S'\x03\x00\x00\x00\x00\x00\x00\x00\x00\x00\x80?\x00\x00\x00\x00'
tRp1801
(dp1802
g30
Nsg224
Nsg225
F0
sg226
F1
sg227
I1
sg228
g212
sg229
F3
sbsg7
I1
sg216
g212
sg551
g552
(NS'\x01@\x01'
NtRp1803
sbsg554
I0
sg555
Nsg556
g220
(g221
S'\x03\x00\x00\x00\x00\x00\x00\x00\x00\x00@@\x00\x00\x00\x00'
tRp1804
(dp1805
g30
Nsg224
Nsg225
F0
sg226
F3
sg227
I0
sg228
g212
sg229
F3
sbsg559
Nsg560
Nsba(dbsg543
g33
(tRp1806
S'<=110.000'
aS'>110.000'
a(dbsg544
g545
(tRp1807
(dp1808
g548
g220
(g221
S'\x03\x00\x00\x00\xe6\xdf\x10>\x08\xbaR=f\x9cN?'
tRp1809
(dp1810
g30
Nsg224
Nsg225
F0
sg226
F1
sg227
I1
sg228
g212
sg229
F311
sbsg7
I1
sg216
g212
sg551
g552
(NS'\x01@\x02'
NtRp1811
sbsg554
I0
sg555
Nsg556
g220
(g221
S'\x03\x00\x00\x00\x00\x000B\x00\x00\x80A\x00\x00{C'
tRp1812
(dp1813
g30
Nsg224
Nsg225
F0
sg226
F311
sg227
I0
sg228
g212
sg229
F311
sbsg559
g262
sg560
Nsbag9
(tRp1814
(dp1815
g12
Nsg230
Nsg543
Nsg544
g545
(tRp1816
(dp1817
g548
g220
(g221
S'\x03\x00\x00\x00\x00\x00\x00\x00\x00\x00\x80?\x00\x00\x00\x00'
tRp1818
(dp1819
g30
Nsg224
Nsg225
F0
sg226
F1
sg227
I1
sg228
g212
sg229
F6
sbsg7
I1
sg216
g212
sg551
g552
(NS'\x01@\x01'
NtRp1820
sbsg554
I0
sg555
Nsg556
g220
(g221
S'\x03\x00\x00\x00\x00\x00\x00\x00\x00\x00\xc0@\x00\x00\x00\x00'
tRp1821
(dp1822
g30
Nsg224
Nsg225
F0
sg226
F6
sg227
I0
sg228
g212
sg229
F6
sbsg559
Nsg560
Nsba(dbsg543
g33
(tRp1823
S'FALSE'
aS'TRUE'
a(dbsg544
g545
(tRp1824
(dp1825
g548
g220
(g221
S'\x03\x00\x00\x00\xeb!\x0e>\xeb!\x8e=H\xb3J?'
tRp1826
(dp1827
g30
Nsg224
Nsg225
F0
sg226
F1
sg227
I1
sg228
g212
sg229
F317
sbsg7
I1
sg216
g212
sg551
g552
(NS'\x01@\x02'
NtRp1828
sbsg554
I0
sg555
Nsg556
g220
(g221
S'\x03\x00\x00\x00\x00\x000B\x00\x00\xb0A\x00\x00{C'
tRp1829
(dp1830
g30
Nsg224
Nsg225
F0
sg226
F317
sg227
I0
sg228
g212
sg229
F317
sbsg559
g244
sg560
Nsbag9
(tRp1831
(dp1832
g12
g13
(tRp1833
(dp1834
g16
g251
(tRp1835
(dp1836
g254
F134
sg255
Nsbsg7
I0
sg17
g215
sg216
g22
(g23
(dp1837
g25
Nsg26
I0
sS'name'
p1838
S'rowCount'
p1839
sg29
I1
sg30
Nsg31
I0
sg32
g33
(tRp1840
S'0'
aS'1'
a(dbsg35
I0
sg36
I-1
stRp1841
(dp1842
g39
Nsbsg217
I0
sg218
I24
sg219
g220
(g221
S'\x02\x00\x00\x00\x00\x80\xb5C\x00\x00\x80?'
tRp1843
(dp1844
g30
Nsg224
Nsg225
F0
sg226
F364
sg227
I0
sg228
g1841
sg229
F364
sbsbsg230
g231
(tRp1845
g9
(tRp1846
(dp1847
g12
g13
(tRp1848
(dp1849
g16
g251
(tRp1850
(dp1851
g254
F1439.75
sg255
Nsbsg7
I0
sg17
g215
sg216
g22
(g23
(dp1852
g25
Nsg26
I0
sS'name'
p1853
S'wordToParaRatio'
p1854
sg29
I1
sg30
Nsg31
I0
sg32
g33
(tRp1855
S'0'
aS'1'
a(dbsg35
I0
sg36
I-1
stRp1856
(dp1857
g39
Nsbsg217
I0
sg218
I30
sg219
g220
(g221
S'\x02\x00\x00\x00\x00\x80\xb4C\x00\x00\x00@'
tRp1858
(dp1859
g30
Nsg224
Nsg225
F0
sg226
F363
sg227
I0
sg228
g1856
sg229
F363
sbsbsg230
g231
(tRp1860
g9
(tRp1861
(dp1862
g12
g13
(tRp1863
(dp1864
g16
g251
(tRp1865
(dp1866
g254
F54
sg255
Nsbsg7
I0
sg17
g215
sg216
g22
(g23
(dp1867
g25
Nsg26
I0
sS'name'
p1868
S'tableCount'
p1869
sg29
I1
sg30
Nsg31
I0
sg32
g33
(tRp1870
S'0'
aS'1'
a(dbsg35
I0
sg36
I-1
stRp1871
(dp1872
g39
Nsbsg217
I0
sg218
I27
sg219
g220
(g221
S'\x02\x00\x00\x00\x00\x00\xb4C\x00\x00\x80?'
tRp1873
(dp1874
g30
Nsg224
Nsg225
F0
sg226
F361
sg227
I0
sg228
g1871
sg229
F361
sbsbsg230
g231
(tRp1875
g9
(tRp1876
(dp1877
g12
g13
(tRp1878
(dp1879
g16
g251
(tRp1880
(dp1881
g254
F199.5
sg255
Nsbsg7
I0
sg17
g215
sg216
g22
(g23
(dp1882
g25
Nsg26
I0
sS'name'
p1883
S'intLinkToExtLinkRatio'
p1884
sg29
I1
sg30
Nsg31
I0
sg32
g33
(tRp1885
S'0'
aS'1'
a(dbsg35
I0
sg36
I-1
stRp1886
(dp1887
g39
Nsbsg217
I0
sg218
I16
sg219
g220
(g221
S'\x02\x00\x00\x00\x00\x80\xb3C\x00\x00\x80?'
tRp1888
(dp1889
g30
Nsg224
Nsg225
F0
sg226
F360
sg227
I0
sg228
g1886
sg229
F360
sbsbsg230
g231
(tRp1890
g9
(tRp1891
(dp1892
g12
g13
(tRp1893
(dp1894
g16
g251
(tRp1895
(dp1896
g254
F47
sg255
Nsbsg7
I0
sg17
g215
sg216
g22
(g23
(dp1897
g25
Nsg26
I0
sS'name'
p1898
S'forumFreqWordCount'
p1899
sg29
I1
sg30
Nsg31
I0
sg32
g33
(tRp1900
S'0'
aS'1'
a(dbsg35
I0
sg36
I-1
stRp1901
(dp1902
g39
Nsbsg217
I0
sg218
I4
sg219
g220
(g221
S'\x02\x00\x00\x00\x00\x00\xb3C\x00\x00\x80?'
tRp1903
(dp1904
g30
Nsg224
Nsg225
F0
sg226
F359
sg227
I0
sg228
g1901
sg229
F359
sbsbsg230
g231
(tRp1905
g9
(tRp1906
(dp1907
g12
g13
(tRp1908
(dp1909
g16
g251
(tRp1910
(dp1911
g254
F0.5
sg255
Nsbsg7
I0
sg17
g215
sg216
g22
(g23
(dp1912
g25
Nsg26
I0
sS'name'
p1913
S'externalLinks'
p1914
sg29
I1
sg30
Nsg31
I0
sg32
g33
(tRp1915
S'0'
aS'1'
a(dbsg35
I0
sg36
I-1
stRp1916
(dp1917
g39
Nsbsg217
I0
sg218
I3
sg219
g220
(g221
S'\x02\x00\x00\x00\x00\x00\x00@\x00\x00\xb2C'
tRp1918
(dp1919
g30
Nsg224
Nsg225
F0
sg226
F358
sg227
I0
sg228
g1916
sg229
F358
sbsbsg230
g231
(tRp1920
g9
(tRp1921
(dp1922
g12
g13
(tRp1923
(dp1924
g16
g251
(tRp1925
(dp1926
g254
F6.6449999809265137
sg255
Nsbsg7
I0
sg17
g215
sg216
g22
(g23
(dp1927
g25
Nsg26
I0
sS'name'
p1928
S'itemToListRatio'
p1929
sg29
I1
sg30
Nsg31
I0
sg32
g33
(tRp1930
S'0'
aS'1'
a(dbsg35
I0
sg36
I-1
stRp1931
(dp1932
g39
Nsbsg217
I0
sg218
I18
sg219
g220
(g221
S'\x02\x00\x00\x00\x00\x00\x80?\x00\x00\x80?'
tRp1933
(dp1934
g30
Nsg224
Nsg225
F0
sg226
F2
sg227
I0
sg228
g1931
sg229
F2
sbsbsg230
g231
(tRp1935
g9
(tRp1936
(dp1937
g12
Nsg230
Nsg543
Nsg544
g545
(tRp1938
(dp1939
g548
g220
(g221
S'\x03\x00\x00\x00\x00\x00\x00\x00\x00\x00\x00\x00\x00\x00\x80?'
tRp1940
(dp1941
g30
Nsg224
Nsg225
F0
sg226
F1
sg227
I1
sg228
g212
sg229
F1
sbsg7
I1
sg216
g212
sg551
g552
(NS'\x01@\x02'
NtRp1942
sbsg554
I0
sg555
Nsg556
g220
(g221
S'\x03\x00\x00\x00\x00\x00\x00\x00\x00\x00\x00\x00\x00\x00\x80?'
tRp1943
(dp1944
g30
Nsg224
Nsg225
F0
sg226
F1
sg227
I0
sg228
g212
sg229
F1
sbsg559
Nsg560
Nsbag9
(tRp1945
(dp1946
g12
Nsg230
Nsg543
Nsg544
g545
(tRp1947
(dp1948
g548
g220
(g221
S'\x03\x00\x00\x00\x00\x00\x00\x00\x00\x00\x80?\x00\x00\x00\x00'
tRp1949
(dp1950
g30
Nsg224
Nsg225
F0
sg226
F1
sg227
I1
sg228
g212
sg229
F1
sbsg7
I1
sg216
g212
sg551
g552
(NS'\x01@\x01'
NtRp1951
sbsg554
I0
sg555
Nsg556
g220
(g221
S'\x03\x00\x00\x00\x00\x00\x00\x00\x00\x00\x80?\x00\x00\x00\x00'
tRp1952
(dp1953
g30
Nsg224
Nsg225
F0
sg226
F1
sg227
I0
sg228
g212
sg229
F1
sbsg559
Nsg560
Nsba(dbsg543
g33
(tRp1954
S'<=6.645'
aS'>6.645'
a(dbsg544
g545
(tRp1955
(dp1956
g548
g220
(g221
S'\x03\x00\x00\x00\x00\x00\x00\x00\x00\x00\x00?\x00\x00\x00?'
tRp1957
(dp1958
g30
Nsg224
Nsg225
F0
sg226
F1
sg227
I1
sg228
g212
sg229
F2
sbsg7
I1
sg216
g212
sg551
g552
(NS'\x01@\x01'
NtRp1959
sbsg554
I0
sg555
Nsg556
g220
(g221
S'\x03\x00\x00\x00\x00\x00\x00\x00\x00\x00\x80?\x00\x00\x80?'
tRp1960
(dp1961
g30
Nsg224
Nsg225
F0
sg226
F2
sg227
I0
sg228
g212
sg229
F2
sbsg559
g1933
sg560
Nsbag9
(tRp1962
(dp1963
g12
g13
(tRp1964
(dp1965
g16
g251
(tRp1966
(dp1967
g254
F49
sg255
Nsbsg7
I0
sg17
g215
sg216
g22
(g23
(dp1968
g25
Nsg26
I0
sS'name'
p1969
S'rowCount'
p1970
sg29
I1
sg30
Nsg31
I0
sg32
g33
(tRp1971
S'0'
aS'1'
a(dbsg35
I0
sg36
I-1
stRp1972
(dp1973
g39
Nsbsg217
I0
sg218
I24
sg219
g220
(g221
S'\x02\x00\x00\x00\x00\x80\xabC\x00\x00PA'
tRp1974
(dp1975
g30
Nsg224
Nsg225
F0
sg226
F356
sg227
I0
sg228
g1972
sg229
F356
sbsbsg230
g231
(tRp1976
g9
(tRp1977
(dp1978
g12
g13
(tRp1979
(dp1980
g16
g251
(tRp1981
(dp1982
g254
F22
sg255
Nsbsg7
I0
sg17
g215
sg216
g22
(g23
(dp1983
g25
Nsg26
I0
sS'name'
p1984
S'tableCount'
p1985
sg29
I1
sg30
Nsg31
I0
sg32
g33
(tRp1986
S'0'
aS'1'
a(dbsg35
I0
sg36
I-1
stRp1987
(dp1988
g39
Nsbsg217
I0
sg218
I27
sg219
g220
(g221
S'\x02\x00\x00\x00\x00\x00\xabC\x00\x00\x80?'
tRp1989
(dp1990
g30
Nsg224
Nsg225
F0
sg226
F343
sg227
I0
sg228
g1987
sg229
F343
sbsbsg230
g231
(tRp1991
g9
(tRp1992
(dp1993
g12
g13
(tRp1994
(dp1995
g16
g251
(tRp1996
(dp1997
g254
F26.5
sg255
Nsbsg7
I0
sg17
g215
sg216
g22
(g23
(dp1998
g25
Nsg26
I0
sS'name'
p1999
S'intLinkToExtLinkRatio'
p2000
sg29
I1
sg30
Nsg31
I0
sg32
g33
(tRp2001
S'0'
aS'1'
a(dbsg35
I0
sg36
I-1
stRp2002
(dp2003
g39
Nsbsg217
I0
sg218
I16
sg219
g220
(g221
S'\x02\x00\x00\x00\x00\x80\xa7C\x00\x00\xe0@'
tRp2004
(dp2005
g30
Nsg224
Nsg225
F0
sg226
F342
sg227
I0
sg228
g2002
sg229
F342
sbsbsg230
g231
(tRp2006
g9
(tRp2007
(dp2008
g12
g13
(tRp2009
(dp2010
g16
g251
(tRp2011
(dp2012
g254
F905
sg255
Nsbsg7
I0
sg17
g215
sg216
g22
(g23
(dp2013
g25
Nsg26
I0
sS'name'
p2014
S'wordCount'
p2015
sg29
I1
sg30
Nsg31
I0
sg32
g33
(tRp2016
S'0'
aS'1'
a(dbsg35
I0
sg36
I-1
stRp2017
(dp2018
g39
Nsbsg217
I0
sg218
I29
sg219
g220
(g221
S'\x02\x00\x00\x00\x00\x00dB\x00\x00\x8bC'
tRp2019
(dp2020
g30
Nsg224
Nsg225
F0
sg226
F335
sg227
I0
sg228
g2017
sg229
F335
sbsbsg230
g231
(tRp2021
g9
(tRp2022
(dp2023
g12
g13
(tRp2024
(dp2025
g16
g251
(tRp2026
(dp2027
g254
F3.5
sg255
Nsbsg7
I0
sg17
g215
sg216
g22
(g23
(dp2028
g25
Nsg26
I0
sS'name'
p2029
S'forumFreqWordCount'
p2030
sg29
I1
sg30
Nsg31
I0
sg32
g33
(tRp2031
S'0'
aS'1'
a(dbsg35
I0
sg36
I-1
stRp2032
(dp2033
g39
Nsbsg217
I0
sg218
I4
sg219
g220
(g221
S'\x02\x00\x00\x00\x00\x00TB\x00\x00\x80@'
tRp2034
(dp2035
g30
Nsg224
Nsg225
F0
sg226
F57
sg227
I0
sg228
g2032
sg229
F57
sbsbsg230
g231
(tRp2036
g9
(tRp2037
(dp2038
g12
g13
(tRp2039
(dp2040
g16
g251
(tRp2041
(dp2042
g254
F22.5
sg255
Nsbsg7
I0
sg17
g215
sg216
g22
(g23
(dp2043
g25
Nsg26
I0
sS'name'
p2044
S'largeImgCount'
p2045
sg29
I1
sg30
Nsg31
I0
sg32
g33
(tRp2046
S'0'
aS'1'
a(dbsg35
I0
sg36
I-1
stRp2047
(dp2048
g39
Nsbsg217
I0
sg218
I19
sg219
g220
(g221
S'\x02\x00\x00\x00\x00\x00LB\x00\x00\x00@'
tRp2049
(dp2050
g30
Nsg224
Nsg225
F0
sg226
F53
sg227
I0
sg228
g2047
sg229
F53
sbsbsg230
g231
(tRp2051
g9
(tRp2052
(dp2053
g12
g13
(tRp2054
(dp2055
g16
g251
(tRp2056
(dp2057
g254
F7
sg255
Nsbsg7
I0
sg17
g215
sg216
g22
(g23
(dp2058
g25
Nsg26
I0
sS'name'
p2059
S'orgFreqWordCount'
p2060
sg29
I1
sg30
Nsg31
I0
sg32
g33
(tRp2061
S'0'
aS'1'
a(dbsg35
I0
sg36
I-1
stRp2062
(dp2063
g39
Nsbsg217
I0
sg218
I22
sg219
g220
(g221
S'\x02\x00\x00\x00\x00\x008B\x00\x00\xa0@'
tRp2064
(dp2065
g30
Nsg224
Nsg225
F0
sg226
F51
sg227
I0
sg228
g2062
sg229
F51
sbsbsg230
g231
(tRp2066
g9
(tRp2067
(dp2068
g12
g13
(tRp2069
(dp2070
g16
g251
(tRp2071
(dp2072
g254
F25.5
sg255
Nsbsg7
I0
sg17
g215
sg216
g22
(g23
(dp2073
g25
Nsg26
I0
sS'name'
p2074
S'listCount'
p2075
sg29
I1
sg30
Nsg31
I0
sg32
g33
(tRp2076
S'0'
aS'1'
a(dbsg35
I0
sg36
I-1
stRp2077
(dp2078
g39
Nsbsg217
I0
sg218
I20
sg219
g220
(g221
S'\x02\x00\x00\x00\x00\x000B\x00\x00\x00@'
tRp2079
(dp2080
g30
Nsg224
Nsg225
F0
sg226
F46
sg227
I0
sg228
g2077
sg229
F46
sbsbsg230
g231
(tRp2081
g9
(tRp2082
(dp2083
g12
g13
(tRp2084
(dp2085
g16
g251
(tRp2086
(dp2087
g254
F18.5
sg255
Nsbsg7
I0
sg17
g215
sg216
g22
(g23
(dp2088
g25
Nsg26
I0
sS'name'
p2089
S'largeImgCount'
p2090
sg29
I1
sg30
Nsg31
I0
sg32
g33
(tRp2091
S'0'
aS'1'
a(dbsg35
I0
sg36
I-1
stRp2092
(dp2093
g39
Nsbsg217
I0
sg218
I19
sg219
g220
(g221
S'\x02\x00\x00\x00\x00\x00(B\x00\x00\x00@'
tRp2094
(dp2095
g30
Nsg224
Nsg225
F0
sg226
F44
sg227
I0
sg228
g2092
sg229
F44
sbsbsg230
g231
(tRp2096
g9
(tRp2097
(dp2098
g12
g13
(tRp2099
(dp2100
g16
g251
(tRp2101
(dp2102
g254
F15.5
sg255
Nsbsg7
I0
sg17
g215
sg216
g22
(g23
(dp2103
g25
Nsg26
I0
sS'name'
p2104
S'intLinkToExtLinkRatio'
p2105
sg29
I1
sg30
Nsg31
I0
sg32
g33
(tRp2106
S'0'
aS'1'
a(dbsg35
I0
sg36
I-1
stRp2107
(dp2108
g39
Nsbsg217
I0
sg218
I16
sg219
g220
(g221
S'\x02\x00\x00\x00\x00\x00$B\x00\x00\x80?'
tRp2109
(dp2110
g30
Nsg224
Nsg225
F0
sg226
F42
sg227
I0
sg228
g2107
sg229
F42
sbsbsg230
g231
(tRp2111
g9
(tRp2112
(dp2113
g12
g13
(tRp2114
(dp2115
g16
g251
(tRp2116
(dp2117
g254
F7.619999885559082
sg255
Nsbsg7
I0
sg17
g215
sg216
g22
(g23
(dp2118
g25
Nsg26
I0
sS'name'
p2119
S'intLinkToExtLinkRatio'
p2120
sg29
I1
sg30
Nsg31
I0
sg32
g33
(tRp2121
S'0'
aS'1'
a(dbsg35
I0
sg36
I-1
stRp2122
(dp2123
g39
Nsbsg217
I0
sg218
I16
sg219
g220
(g221
S'\x02\x00\x00\x00\x00\x00\x08B\x00\x00\xe0@'
tRp2124
(dp2125
g30
Nsg224
Nsg225
F0
sg226
F41
sg227
I0
sg228
g2122
sg229
F41
sbsbsg230
g231
(tRp2126
g9
(tRp2127
(dp2128
g12
g13
(tRp2129
(dp2130
g16
g251
(tRp2131
(dp2132
g254
F11.5
sg255
Nsbsg7
I0
sg17
g215
sg216
g22
(g23
(dp2133
g25
Nsg26
I0
sS'name'
p2134
S'totLinks'
p2135
sg29
I1
sg30
Nsg31
I0
sg32
g33
(tRp2136
S'0'
aS'1'
a(dbsg35
I0
sg36
I-1
stRp2137
(dp2138
g39
Nsbsg217
I0
sg218
I28
sg219
g220
(g221
S'\x02\x00\x00\x00\x00\x00\x00@\x00\x00\x00B'
tRp2139
(dp2140
g30
Nsg224
Nsg225
F0
sg226
F34
sg227
I0
sg228
g2137
sg229
F34
sbsbsg230
g231
(tRp2141
g9
(tRp2142
(dp2143
g12
g13
(tRp2144
(dp2145
g16
g251
(tRp2146
(dp2147
g254
F0.5
sg255
Nsbsg7
I0
sg17
g215
sg216
g22
(g23
(dp2148
g25
Nsg26
I0
sS'name'
p2149
S'itemToListRatio'
p2150
sg29
I1
sg30
Nsg31
I0
sg32
g33
(tRp2151
S'0'
aS'1'
a(dbsg35
I0
sg36
I-1
stRp2152
(dp2153
g39
Nsbsg217
I0
sg218
I18
sg219
g220
(g221
S'\x02\x00\x00\x00\x00\x00\x80?\x00\x00\x80?'
tRp2154
(dp2155
g30
Nsg224
Nsg225
F0
sg226
F2
sg227
I0
sg228
g2152
sg229
F2
sbsbsg230
g231
(tRp2156
g9
(tRp2157
(dp2158
g12
Nsg230
Nsg543
Nsg544
g545
(tRp2159
(dp2160
g548
g220
(g221
S'\x03\x00\x00\x00\x00\x00\x80?\x00\x00\x00\x00\x00\x00\x00\x00'
tRp2161
(dp2162
g30
Nsg224
Nsg225
F0
sg226
F1
sg227
I1
sg228
g212
sg229
F1
sbsg7
I1
sg216
g212
sg551
g552
(NS'\x01@\x00'
NtRp2163
sbsg554
I0
sg555
Nsg556
g220
(g221
S'\x03\x00\x00\x00\x00\x00\x80?\x00\x00\x00\x00\x00\x00\x00\x00'
tRp2164
(dp2165
g30
Nsg224
Nsg225
F0
sg226
F1
sg227
I0
sg228
g212
sg229
F1
sbsg559
Nsg560
Nsbag9
(tRp2166
(dp2167
g12
Nsg230
Nsg543
Nsg544
g545
(tRp2168
(dp2169
g548
g220
(g221
S'\x03\x00\x00\x00\x00\x00\x00\x00\x00\x00\x80?\x00\x00\x00\x00'
tRp2170
(dp2171
g30
Nsg224
Nsg225
F0
sg226
F1
sg227
I1
sg228
g212
sg229
F1
sbsg7
I1
sg216
g212
sg551
g552
(NS'\x01@\x01'
NtRp2172
sbsg554
I0
sg555
Nsg556
g220
(g221
S'\x03\x00\x00\x00\x00\x00\x00\x00\x00\x00\x80?\x00\x00\x00\x00'
tRp2173
(dp2174
g30
Nsg224
Nsg225
F0
sg226
F1
sg227
I0
sg228
g212
sg229
F1
sbsg559
Nsg560
Nsba(dbsg543
g33
(tRp2175
S'<=0.500'
aS'>0.500'
a(dbsg544
g545
(tRp2176
(dp2177
g548
g220
(g221
S'\x03\x00\x00\x00\x00\x00\x00?\x00\x00\x00?\x00\x00\x00\x00'
tRp2178
(dp2179
g30
Nsg224
Nsg225
F0
sg226
F1
sg227
I1
sg228
g212
sg229
F2
sbsg7
I1
sg216
g212
sg551
g552
(NS'\x01@\x00'
NtRp2180
sbsg554
I0
sg555
Nsg556
g220
(g221
S'\x03\x00\x00\x00\x00\x00\x80?\x00\x00\x80?\x00\x00\x00\x00'
tRp2181
(dp2182
g30
Nsg224
Nsg225
F0
sg226
F2
sg227
I0
sg228
g212
sg229
F2
sbsg559
g2154
sg560
Nsbag9
(tRp2183
(dp2184
g12
g13
(tRp2185
(dp2186
g16
g251
(tRp2187
(dp2188
g254
F13.5
sg255
Nsbsg7
I0
sg17
g215
sg216
g22
(g23
(dp2189
g25
Nsg26
I0
sS'name'
p2190
S'totLinks'
p2191
sg29
I1
sg30
Nsg31
I0
sg32
g33
(tRp2192
S'0'
aS'1'
a(dbsg35
I0
sg36
I-1
stRp2193
(dp2194
g39
Nsbsg217
I0
sg218
I28
sg219
g220
(g221
S'\x02\x00\x00\x00\x00\x00\x80?\x00\x00\xf8A'
tRp2195
(dp2196
g30
Nsg224
Nsg225
F0
sg226
F32
sg227
I0
sg228
g2193
sg229
F32
sbsbsg230
g231
(tRp2197
g9
(tRp2198
(dp2199
g12
Nsg230
Nsg543
Nsg544
g545
(tRp2200
(dp2201
g548
g220
(g221
S'\x03\x00\x00\x00\x00\x00\x00\x00\x00\x00\x00\x00\x00\x00\x80?'
tRp2202
(dp2203
g30
Nsg224
Nsg225
F0
sg226
F1
sg227
I1
sg228
g212
sg229
F1
sbsg7
I1
sg216
g212
sg551
g552
(NS'\x01@\x02'
NtRp2204
sbsg554
I0
sg555
Nsg556
g220
(g221
S'\x03\x00\x00\x00\x00\x00\x00\x00\x00\x00\x00\x00\x00\x00\x80?'
tRp2205
(dp2206
g30
Nsg224
Nsg225
F0
sg226
F1
sg227
I0
sg228
g212
sg229
F1
sbsg559
Nsg560
Nsbag9
(tRp2207
(dp2208
g12
g13
(tRp2209
(dp2210
g16
g251
(tRp2211
(dp2212
g254
F283.5
sg255
Nsbsg7
I0
sg17
g215
sg216
g22
(g23
(dp2213
g25
Nsg26
I0
sS'name'
p2214
S'wordCount'
p2215
sg29
I1
sg30
Nsg31
I0
sg32
g33
(tRp2216
S'0'
aS'1'
a(dbsg35
I0
sg36
I-1
stRp2217
(dp2218
g39
Nsbsg217
I0
sg218
I29
sg219
g220
(g221
S'\x02\x00\x00\x00\x00\x00\xe0@\x00\x00\xc0A'
tRp2219
(dp2220
g30
Nsg224
Nsg225
F0
sg226
F31
sg227
I0
sg228
g2217
sg229
F31
sbsbsg230
g231
(tRp2221
g9
(tRp2222
(dp2223
g12
g13
(tRp2224
(dp2225
g16
g251
(tRp2226
(dp2227
g254
F251
sg255
Nsbsg7
I0
sg17
g215
sg216
g22
(g23
(dp2228
g25
Nsg26
I0
sS'name'
p2229
S'wordCount'
p2230
sg29
I1
sg30
Nsg31
I0
sg32
g33
(tRp2231
S'0'
aS'1'
a(dbsg35
I0
sg36
I-1
stRp2232
(dp2233
g39
Nsbsg217
I0
sg218
I29
sg219
g220
(g221
S'\x02\x00\x00\x00\x00\x00\xa0@\x00\x00\x00@'
tRp2234
(dp2235
g30
Nsg224
Nsg225
F0
sg226
F7
sg227
I0
sg228
g2232
sg229
F7
sbsbsg230
g231
(tRp2236
g9
(tRp2237
(dp2238
g12
Nsg230
Nsg543
Nsg544
g545
(tRp2239
(dp2240
g548
g220
(g221
S'\x03\x00\x00\x00\x00\x00\x80?\x00\x00\x00\x00\x00\x00\x00\x00'
tRp2241
(dp2242
g30
Nsg224
Nsg225
F0
sg226
F1
sg227
I1
sg228
g212
sg229
F5
sbsg7
I1
sg216
g212
sg551
g552
(NS'\x01@\x00'
NtRp2243
sbsg554
I0
sg555
Nsg556
g220
(g221
S'\x03\x00\x00\x00\x00\x00\xa0@\x00\x00\x00\x00\x00\x00\x00\x00'
tRp2244
(dp2245
g30
Nsg224
Nsg225
F0
sg226
F5
sg227
I0
sg228
g212
sg229
F5
sbsg559
Nsg560
Nsbag9
(tRp2246
(dp2247
g12
Nsg230
Nsg543
Nsg544
g545
(tRp2248
(dp2249
g548
g220
(g221
S'\x03\x00\x00\x00\x00\x00\x00\x00\x00\x00\x00\x00\x00\x00\x80?'
tRp2250
(dp2251
g30
Nsg224
Nsg225
F0
sg226
F1
sg227
I1
sg228
g212
sg229
F2
sbsg7
I1
sg216
g212
sg551
g552
(NS'\x01@\x02'
NtRp2252
sbsg554
I0
sg555
Nsg556
g220
(g221
S'\x03\x00\x00\x00\x00\x00\x00\x00\x00\x00\x00\x00\x00\x00\x00@'
tRp2253
(dp2254
g30
Nsg224
Nsg225
F0
sg226
F2
sg227
I0
sg228
g212
sg229
F2
sbsg559
Nsg560
Nsba(dbsg543
g33
(tRp2255
S'<=251.000'
aS'>251.000'
a(dbsg544
g545
(tRp2256
(dp2257
g548
g220
(g221
S'\x03\x00\x00\x00n\xdb6?\x00\x00\x00\x00%I\x92>'
tRp2258
(dp2259
g30
Nsg224
Nsg225
F0
sg226
F1
sg227
I1
sg228
g212
sg229
F7
sbsg7
I1
sg216
g212
sg551
g552
(NS'\x01@\x00'
NtRp2260
sbsg554
I0
sg555
Nsg556
g220
(g221
S'\x03\x00\x00\x00\x00\x00\xa0@\x00\x00\x00\x00\x00\x00\x00@'
tRp2261
(dp2262
g30
Nsg224
Nsg225
F0
sg226
F7
sg227
I0
sg228
g212
sg229
F7
sbsg559
g2234
sg560
Nsbag9
(tRp2263
(dp2264
g12
Nsg230
Nsg543
Nsg544
g545
(tRp2265
(dp2266
g548
g220
(g221
S'\x03\x00\x00\x00\x00\x00\x80?\x00\x00\x00\x00\x00\x00\x00\x00'
tRp2267
(dp2268
g30
Nsg224
Nsg225
F0
sg226
F1
sg227
I1
sg228
g212
sg229
F24
sbsg7
I1
sg216
g212
sg551
g552
(NS'\x01@\x00'
NtRp2269
sbsg554
I0
sg555
Nsg556
g220
(g221
S'\x03\x00\x00\x00\x00\x00\xc0A\x00\x00\x00\x00\x00\x00\x00\x00'
tRp2270
(dp2271
g30
Nsg224
Nsg225
F0
sg226
F24
sg227
I0
sg228
g212
sg229
F24
sbsg559
Nsg560
Nsba(dbsg543
g33
(tRp2272
S'<=283.500'
aS'>283.500'
a(dbsg544
g545
(tRp2273
(dp2274
g548
g220
(g221
S'\x03\x00\x00\x00\xdf{o?\x00\x00\x00\x00\x08!\x84='
tRp2275
(dp2276
g30
Nsg224
Nsg225
F0
sg226
F1
sg227
I1
sg228
g212
sg229
F31
sbsg7
I1
sg216
g212
sg551
g552
(NS'\x01@\x00'
NtRp2277
sbsg554
I0
sg555
Nsg556
g220
(g221
S'\x03\x00\x00\x00\x00\x00\xe8A\x00\x00\x00\x00\x00\x00\x00@'
tRp2278
(dp2279
g30
Nsg224
Nsg225
F0
sg226
F31
sg227
I0
sg228
g212
sg229
F31
sbsg559
g2219
sg560
Nsba(dbsg543
g33
(tRp2280
S'<=13.500'
aS'>13.500'
a(dbsg544
g545
(tRp2281
(dp2282
g548
g220
(g221
S'\x03\x00\x00\x00\x00\x00h?\x00\x00\x00\x00\x00\x00\xc0='
tRp2283
(dp2284
g30
Nsg224
Nsg225
F0
sg226
F1
sg227
I1
sg228
g212
sg229
F32
sbsg7
I1
sg216
g212
sg551
g552
(NS'\x01@\x00'
NtRp2285
sbsg554
I0
sg555
Nsg556
g220
(g221
S'\x03\x00\x00\x00\x00\x00\xe8A\x00\x00\x00\x00\x00\x00@@'
tRp2286
(dp2287
g30
Nsg224
Nsg225
F0
sg226
F32
sg227
I0
sg228
g212
sg229
F32
sbsg559
g2195
sg560
Nsba(dbsg543
g33
(tRp2288
S'<=11.500'
aS'>11.500'
a(dbsg544
g545
(tRp2289
(dp2290
g548
g220
(g221
S'\x03\x00\x00\x00\xe2\xe1a?\xf1\xf0\xf0<\xb5\xb4\xb4='
tRp2291
(dp2292
g30
Nsg224
Nsg225
F0
sg226
F1
sg227
I1
sg228
g212
sg229
F34
sbsg7
I1
sg216
g212
sg551
g552
(NS'\x01@\x00'
NtRp2293
sbsg554
I0
sg555
Nsg556
g220
(g221
S'\x03\x00\x00\x00\x00\x00\xf0A\x00\x00\x80?\x00\x00@@'
tRp2294
(dp2295
g30
Nsg224
Nsg225
F0
sg226
F34
sg227
I0
sg228
g212
sg229
F34
sbsg559
g2139
sg560
Nsbag9
(tRp2296
(dp2297
g12
g13
(tRp2298
(dp2299
g16
g251
(tRp2300
(dp2301
g254
F0.5
sg255
Nsbsg7
I0
sg17
g215
sg216
g22
(g23
(dp2302
g25
Nsg26
I0
sS'name'
p2303
S'orgFreqWordCount'
p2304
sg29
I1
sg30
Nsg31
I0
sg32
g33
(tRp2305
S'0'
aS'1'
a(dbsg35
I0
sg36
I-1
stRp2306
(dp2307
g39
Nsbsg217
I0
sg218
I22
sg219
g220
(g221
S'\x02\x00\x00\x00\x00\x00\xa0@\x00\x00\x00@'
tRp2308
(dp2309
g30
Nsg224
Nsg225
F0
sg226
F7
sg227
I0
sg228
g2306
sg229
F7
sbsbsg230
g231
(tRp2310
g9
(tRp2311
(dp2312
g12
g13
(tRp2313
(dp2314
g16
g251
(tRp2315
(dp2316
g254
F0.5
sg255
Nsbsg7
I0
sg17
g215
sg216
g22
(g23
(dp2317
g25
Nsg26
I0
sS'name'
p2318
S'tableCount'
p2319
sg29
I1
sg30
Nsg31
I0
sg32
g33
(tRp2320
S'0'
aS'1'
a(dbsg35
I0
sg36
I-1
stRp2321
(dp2322
g39
Nsbsg217
I0
sg218
I27
sg219
g220
(g221
S'\x02\x00\x00\x00\x00\x00\x80@\x00\x00\x80?'
tRp2323
(dp2324
g30
Nsg224
Nsg225
F0
sg226
F5
sg227
I0
sg228
g2321
sg229
F5
sbsbsg230
g231
(tRp2325
g9
(tRp2326
(dp2327
g12
Nsg230
Nsg543
Nsg544
g545
(tRp2328
(dp2329
g548
g220
(g221
S'\x03\x00\x00\x00\x00\x00\x80?\x00\x00\x00\x00\x00\x00\x00\x00'
tRp2330
(dp2331
g30
Nsg224
Nsg225
F0
sg226
F1
sg227
I1
sg228
g212
sg229
F4
sbsg7
I1
sg216
g212
sg551
g552
(NS'\x01@\x00'
NtRp2332
sbsg554
I0
sg555
Nsg556
g220
(g221
S'\x03\x00\x00\x00\x00\x00\x80@\x00\x00\x00\x00\x00\x00\x00\x00'
tRp2333
(dp2334
g30
Nsg224
Nsg225
F0
sg226
F4
sg227
I0
sg228
g212
sg229
F4
sbsg559
Nsg560
Nsbag9
(tRp2335
(dp2336
g12
Nsg230
Nsg543
Nsg544
g545
(tRp2337
(dp2338
g548
g220
(g221
S'\x03\x00\x00\x00\x00\x00\x00\x00\x00\x00\x80?\x00\x00\x00\x00'
tRp2339
(dp2340
g30
Nsg224
Nsg225
F0
sg226
F1
sg227
I1
sg228
g212
sg229
F1
sbsg7
I1
sg216
g212
sg551
g552
(NS'\x01@\x01'
NtRp2341
sbsg554
I0
sg555
Nsg556
g220
(g221
S'\x03\x00\x00\x00\x00\x00\x00\x00\x00\x00\x80?\x00\x00\x00\x00'
tRp2342
(dp2343
g30
Nsg224
Nsg225
F0
sg226
F1
sg227
I0
sg228
g212
sg229
F1
sbsg559
Nsg560
Nsba(dbsg543
g33
(tRp2344
S'<=0.500'
aS'>0.500'
a(dbsg544
g545
(tRp2345
(dp2346
g548
g220
(g221
S'\x03\x00\x00\x00\xcd\xccL?\xcd\xccL>\x00\x00\x00\x00'
tRp2347
(dp2348
g30
Nsg224
Nsg225
F0
sg226
F1
sg227
I1
sg228
g212
sg229
F5
sbsg7
I1
sg216
g212
sg551
g552
(NS'\x01@\x00'
NtRp2349
sbsg554
I0
sg555
Nsg556
g220
(g221
S'\x03\x00\x00\x00\x00\x00\x80@\x00\x00\x80?\x00\x00\x00\x00'
tRp2350
(dp2351
g30
Nsg224
Nsg225
F0
sg226
F5
sg227
I0
sg228
g212
sg229
F5
sbsg559
g2323
sg560
Nsbag9
(tRp2352
(dp2353
g12
Nsg230
Nsg543
Nsg544
g545
(tRp2354
(dp2355
g548
g220
(g221
S'\x03\x00\x00\x00\x00\x00\x00\x00\x00\x00\x80?\x00\x00\x00\x00'
tRp2356
(dp2357
g30
Nsg224
Nsg225
F0
sg226
F1
sg227
I1
sg228
g212
sg229
F2
sbsg7
I1
sg216
g212
sg551
g552
(NS'\x01@\x01'
NtRp2358
sbsg554
I0
sg555
Nsg556
g220
(g221
S'\x03\x00\x00\x00\x00\x00\x00\x00\x00\x00\x00@\x00\x00\x00\x00'
tRp2359
(dp2360
g30
Nsg224
Nsg225
F0
sg226
F2
sg227
I0
sg228
g212
sg229
F2
sbsg559
Nsg560
Nsba(dbsg543
g33
(tRp2361
S'<=0.500'
aS'>0.500'
a(dbsg544
g545
(tRp2362
(dp2363
g548
g220
(g221
S'\x03\x00\x00\x00%I\x12?\xb7m\xdb>\x00\x00\x00\x00'
tRp2364
(dp2365
g30
Nsg224
Nsg225
F0
sg226
F1
sg227
I1
sg228
g212
sg229
F7
sbsg7
I1
sg216
g212
sg551
g552
(NS'\x01@\x00'
NtRp2366
sbsg554
I0
sg555
Nsg556
g220
(g221
S'\x03\x00\x00\x00\x00\x00\x80@\x00\x00@@\x00\x00\x00\x00'
tRp2367
(dp2368
g30
Nsg224
Nsg225
F0
sg226
F7
sg227
I0
sg228
g212
sg229
F7
sbsg559
g2308
sg560
Nsba(dbsg543
g33
(tRp2369
S'<=7.620'
aS'>7.620'
a(dbsg544
g545
(tRp2370
(dp2371
g548
g220
(g221
S'\x03\x00\x00\x00\xedJT?\x0c\xce\xc7=\x89\xda\x95='
tRp2372
(dp2373
g30
Nsg224
Nsg225
F0
sg226
F1
sg227
I1
sg228
g212
sg229
F41
sbsg7
I1
sg216
g212
sg551
g552
(NS'\x01@\x00'
NtRp2374
sbsg554
I0
sg555
Nsg556
g220
(g221
S'\x03\x00\x00\x00\x00\x00\x08B\x00\x00\x80@\x00\x00@@'
tRp2375
(dp2376
g30
Nsg224
Nsg225
F0
sg226
F41
sg227
I0
sg228
g212
sg229
F41
sbsg559
g2124
sg560
Nsbag9
(tRp2377
(dp2378
g12
Nsg230
Nsg543
Nsg544
g545
(tRp2379
(dp2380
g548
g220
(g221
S'\x03\x00\x00\x00\x00\x00\x00\x00\x00\x00\x00\x00\x00\x00\x80?'
tRp2381
(dp2382
g30
Nsg224
Nsg225
F0
sg226
F1
sg227
I1
sg228
g212
sg229
F1
sbsg7
I1
sg216
g212
sg551
g552
(NS'\x01@\x02'
NtRp2383
sbsg554
I0
sg555
Nsg556
g220
(g221
S'\x03\x00\x00\x00\x00\x00\x00\x00\x00\x00\x00\x00\x00\x00\x80?'
tRp2384
(dp2385
g30
Nsg224
Nsg225
F0
sg226
F1
sg227
I0
sg228
g212
sg229
F1
sbsg559
Nsg560
Nsba(dbsg543
g33
(tRp2386
S'<=15.500'
aS'>15.500'
a(dbsg544
g545
(tRp2387
(dp2388
g548
g220
(g221
S'\x03\x00\x00\x00\xf4<O?1\x0c\xc3=1\x0c\xc3='
tRp2389
(dp2390
g30
Nsg224
Nsg225
F0
sg226
F1
sg227
I1
sg228
g212
sg229
F42
sbsg7
I1
sg216
g212
sg551
g552
(NS'\x01@\x00'
NtRp2391
sbsg554
I0
sg555
Nsg556
g220
(g221
S'\x03\x00\x00\x00\x00\x00\x08B\x00\x00\x80@\x00\x00\x80@'
tRp2392
(dp2393
g30
Nsg224
Nsg225
F0
sg226
F42
sg227
I0
sg228
g212
sg229
F42
sbsg559
g2109
sg560
Nsbag9
(tRp2394
(dp2395
g12
Nsg230
Nsg543
Nsg544
g545
(tRp2396
(dp2397
g548
g220
(g221
S'\x03\x00\x00\x00\x00\x00\x00\x00\x00\x00\x00\x00\x00\x00\x80?'
tRp2398
(dp2399
g30
Nsg224
Nsg225
F0
sg226
F1
sg227
I1
sg228
g212
sg229
F2
sbsg7
I1
sg216
g212
sg551
g552
(NS'\x01@\x02'
NtRp2400
sbsg554
I0
sg555
Nsg556
g220
(g221
S'\x03\x00\x00\x00\x00\x00\x00\x00\x00\x00\x00\x00\x00\x00\x00@'
tRp2401
(dp2402
g30
Nsg224
Nsg225
F0
sg226
F2
sg227
I0
sg228
g212
sg229
F2
sbsg559
Nsg560
Nsba(dbsg543
g33
(tRp2403
S'<=18.500'
aS'>18.500'
a(dbsg544
g545
(tRp2404
(dp2405
g548
g220
(g221
S'\x03\x00\x00\x00t\xd1E?\x8c.\xba=\xe9\xa2\x0b>'
tRp2406
(dp2407
g30
Nsg224
Nsg225
F0
sg226
F1
sg227
I1
sg228
g212
sg229
F44
sbsg7
I1
sg216
g212
sg551
g552
(NS'\x01@\x00'
NtRp2408
sbsg554
I0
sg555
Nsg556
g220
(g221
S'\x03\x00\x00\x00\x00\x00\x08B\x00\x00\x80@\x00\x00\xc0@'
tRp2409
(dp2410
g30
Nsg224
Nsg225
F0
sg226
F44
sg227
I0
sg228
g212
sg229
F44
sbsg559
g2094
sg560
Nsbag9
(tRp2411
(dp2412
g12
Nsg230
Nsg543
Nsg544
g545
(tRp2413
(dp2414
g548
g220
(g221
S'\x03\x00\x00\x00\x00\x00\x00\x00\x00\x00\x00\x00\x00\x00\x80?'
tRp2415
(dp2416
g30
Nsg224
Nsg225
F0
sg226
F1
sg227
I1
sg228
g212
sg229
F2
sbsg7
I1
sg216
g212
sg551
g552
(NS'\x01@\x02'
NtRp2417
sbsg554
I0
sg555
Nsg556
g220
(g221
S'\x03\x00\x00\x00\x00\x00\x00\x00\x00\x00\x00\x00\x00\x00\x00@'
tRp2418
(dp2419
g30
Nsg224
Nsg225
F0
sg226
F2
sg227
I0
sg228
g212
sg229
F2
sbsg559
Nsg560
Nsba(dbsg543
g33
(tRp2420
S'<=25.500'
aS'>25.500'
a(dbsg544
g545
(tRp2421
(dp2422
g548
g220
(g221
S'\x03\x00\x00\x00\xa77=?C\x16\xb2=C\x162>'
tRp2423
(dp2424
g30
Nsg224
Nsg225
F0
sg226
F1
sg227
I1
sg228
g212
sg229
F46
sbsg7
I1
sg216
g212
sg551
g552
(NS'\x01@\x00'
NtRp2425
sbsg554
I0
sg555
Nsg556
g220
(g221
S'\x03\x00\x00\x00\x00\x00\x08B\x00\x00\x80@\x00\x00\x00A'
tRp2426
(dp2427
g30
Nsg224
Nsg225
F0
sg226
F46
sg227
I0
sg228
g212
sg229
F46
sbsg559
g2079
sg560
Nsbag9
(tRp2428
(dp2429
g12
Nsg230
Nsg543
Nsg544
g545
(tRp2430
(dp2431
g548
g220
(g221
S'\x03\x00\x00\x00\x00\x00\x00\x00\x00\x00\x00\x00\x00\x00\x80?'
tRp2432
(dp2433
g30
Nsg224
Nsg225
F0
sg226
F1
sg227
I1
sg228
g212
sg229
F5
sbsg7
I1
sg216
g212
sg551
g552
(NS'\x01@\x02'
NtRp2434
sbsg554
I0
sg555
Nsg556
g220
(g221
S'\x03\x00\x00\x00\x00\x00\x00\x00\x00\x00\x00\x00\x00\x00\xa0@'
tRp2435
(dp2436
g30
Nsg224
Nsg225
F0
sg226
F5
sg227
I0
sg228
g212
sg229
F5
sbsg559
Nsg560
Nsba(dbsg543
g33
(tRp2437
S'<=7.000'
aS'>7.000'
a(dbsg544
g545
(tRp2438
(dp2439
g548
g220
(g221
S'\x03\x00\x00\x00\xab\xaa*?\xa1\xa0\xa0=\x83\x82\x82>'
tRp2440
(dp2441
g30
Nsg224
Nsg225
F0
sg226
F1
sg227
I1
sg228
g212
sg229
F51
sbsg7
I1
sg216
g212
sg551
g552
(NS'\x01@\x00'
NtRp2442
sbsg554
I0
sg555
Nsg556
g220
(g221
S'\x03\x00\x00\x00\x00\x00\x08B\x00\x00\x80@\x00\x00PA'
tRp2443
(dp2444
g30
Nsg224
Nsg225
F0
sg226
F51
sg227
I0
sg228
g212
sg229
F51
sbsg559
g2064
sg560
Nsbag9
(tRp2445
(dp2446
g12
Nsg230
Nsg543
Nsg544
g545
(tRp2447
(dp2448
g548
g220
(g221
S'\x03\x00\x00\x00\x00\x00\x00\x00\x00\x00\x80?\x00\x00\x00\x00'
tRp2449
(dp2450
g30
Nsg224
Nsg225
F0
sg226
F1
sg227
I1
sg228
g212
sg229
F2
sbsg7
I1
sg216
g212
sg551
g552
(NS'\x01@\x01'
NtRp2451
sbsg554
I0
sg555
Nsg556
g220
(g221
S'\x03\x00\x00\x00\x00\x00\x00\x00\x00\x00\x00@\x00\x00\x00\x00'
tRp2452
(dp2453
g30
Nsg224
Nsg225
F0
sg226
F2
sg227
I0
sg228
g212
sg229
F2
sbsg559
Nsg560
Nsba(dbsg543
g33
(tRp2454
S'<=22.500'
aS'>22.500'
a(dbsg544
g545
(tRp2455
(dp2456
g548
g220
(g221
S'\x03\x00\x00\x00\xf69$?\\\xd9\xe7=y+{>'
tRp2457
(dp2458
g30
Nsg224
Nsg225
F0
sg226
F1
sg227
I1
sg228
g212
sg229
F53
sbsg7
I1
sg216
g212
sg551
g552
(NS'\x01@\x00'
NtRp2459
sbsg554
I0
sg555
Nsg556
g220
(g221
S'\x03\x00\x00\x00\x00\x00\x08B\x00\x00\xc0@\x00\x00PA'
tRp2460
(dp2461
g30
Nsg224
Nsg225
F0
sg226
F53
sg227
I0
sg228
g212
sg229
F53
sbsg559
g2049
sg560
Nsbag9
(tRp2462
(dp2463
g12
Nsg230
Nsg543
Nsg544
g545
(tRp2464
(dp2465
g548
g220
(g221
S'\x03\x00\x00\x00\x00\x00\x00\x00\x00\x00\x80?\x00\x00\x00\x00'
tRp2466
(dp2467
g30
Nsg224
Nsg225
F0
sg226
F1
sg227
I1
sg228
g212
sg229
F4
sbsg7
I1
sg216
g212
sg551
g552
(NS'\x01@\x01'
NtRp2468
sbsg554
I0
sg555
Nsg556
g220
(g221
S'\x03\x00\x00\x00\x00\x00\x00\x00\x00\x00\x80@\x00\x00\x00\x00'
tRp2469
(dp2470
g30
Nsg224
Nsg225
F0
sg226
F4
sg227
I0
sg228
g212
sg229
F4
sbsg559
Nsg560
Nsba(dbsg543
g33
(tRp2471
S'<=3.500'
aS'>3.500'
a(dbsg544
g545
(tRp2472
(dp2473
g548
g220
(g221
S'\x03\x00\x00\x00\xa6\xb3\x18?-\xa63>:\x8bi>'
tRp2474
(dp2475
g30
Nsg224
Nsg225
F0
sg226
F1
sg227
I1
sg228
g212
sg229
F57
sbsg7
I1
sg216
g212
sg551
g552
(NS'\x01@\x00'
NtRp2476
sbsg554
I0
sg555
Nsg556
g220
(g221
S'\x03\x00\x00\x00\x00\x00\x08B\x00\x00 A\x00\x00PA'
tRp2477
(dp2478
g30
Nsg224
Nsg225
F0
sg226
F57
sg227
I0
sg228
g212
sg229
F57
sbsg559
g2034
sg560
Nsbag9
(tRp2479
(dp2480
g12
g13
(tRp2481
(dp2482
g16
Nsg7
I0
sg17
g215
sg216
g97
sg217
I0
sg218
I9
sg219
g220
(g221
S'\x02\x00\x00\x00\x00\x00\x8aC\x00\x00\x00@'
tRp2483
(dp2484
g30
Nsg224
Nsg225
F0
sg226
F278
sg227
I0
sg228
g97
sg229
F278
sbsbsg230
g231
(tRp2485
g9
(tRp2486
(dp2487
g12
g13
(tRp2488
(dp2489
g16
g251
(tRp2490
(dp2491
g254
F0.5
sg255
Nsbsg7
I0
sg17
g215
sg216
g22
(g23
(dp2492
g25
Nsg26
I0
sS'name'
p2493
S'largeImgCount'
p2494
sg29
I1
sg30
Nsg31
I0
sg32
g33
(tRp2495
S'0'
aS'1'
a(dbsg35
I0
sg36
I-1
stRp2496
(dp2497
g39
Nsbsg217
I0
sg218
I19
sg219
g220
(g221
S'\x02\x00\x00\x00\x00\x00\xe0@\x00\x80\x86C'
tRp2498
(dp2499
g30
Nsg224
Nsg225
F0
sg226
F276
sg227
I0
sg228
g2496
sg229
F276
sbsbsg230
g231
(tRp2500
g9
(tRp2501
(dp2502
g12
g13
(tRp2503
(dp2504
g16
Nsg7
I0
sg17
g215
sg216
g44
sg217
I0
sg218
I1
sg219
g220
(g221
S'\x02\x00\x00\x00\x00\x00\xa0@\x00\x00\x00@'
tRp2505
(dp2506
g30
Nsg224
Nsg225
F0
sg226
F7
sg227
I0
sg228
g44
sg229
F7
sbsbsg230
g231
(tRp2507
g9
(tRp2508
(dp2509
g12
Nsg230
Nsg543
Nsg544
g545
(tRp2510
(dp2511
g548
g220
(g221
S'\x03\x00\x00\x00\x00\x00\x80?\x00\x00\x00\x00\x00\x00\x00\x00'
tRp2512
(dp2513
g30
Nsg224
Nsg225
F0
sg226
F1
sg227
I1
sg228
g212
sg229
F5
sbsg7
I1
sg216
g212
sg551
g552
(NS'\x01@\x00'
NtRp2514
sbsg554
I0
sg555
Nsg556
g220
(g221
S'\x03\x00\x00\x00\x00\x00\xa0@\x00\x00\x00\x00\x00\x00\x00\x00'
tRp2515
(dp2516
g30
Nsg224
Nsg225
F0
sg226
F5
sg227
I0
sg228
g212
sg229
F5
sbsg559
Nsg560
Nsbag9
(tRp2517
(dp2518
g12
Nsg230
Nsg543
Nsg544
g545
(tRp2519
(dp2520
g548
g220
(g221
S'\x03\x00\x00\x00\x00\x00\x00\x00\x00\x00\x80?\x00\x00\x00\x00'
tRp2521
(dp2522
g30
Nsg224
Nsg225
F0
sg226
F1
sg227
I1
sg228
g212
sg229
F2
sbsg7
I1
sg216
g212
sg551
g552
(NS'\x01@\x01'
NtRp2523
sbsg554
I0
sg555
Nsg556
g220
(g221
S'\x03\x00\x00\x00\x00\x00\x00\x00\x00\x00\x00@\x00\x00\x00\x00'
tRp2524
(dp2525
g30
Nsg224
Nsg225
F0
sg226
F2
sg227
I0
sg228
g212
sg229
F2
sbsg559
Nsg560
Nsba(dbsg543
g33
(tRp2526
S'FALSE'
aS'TRUE'
a(dbsg544
g545
(tRp2527
(dp2528
g548
g220
(g221
S'\x03\x00\x00\x00n\xdb6?%I\x92>\x00\x00\x00\x00'
tRp2529
(dp2530
g30
Nsg224
Nsg225
F0
sg226
F1
sg227
I1
sg228
g212
sg229
F7
sbsg7
I1
sg216
g212
sg551
g552
(NS'\x01@\x00'
NtRp2531
sbsg554
I0
sg555
Nsg556
g220
(g221
S'\x03\x00\x00\x00\x00\x00\xa0@\x00\x00\x00@\x00\x00\x00\x00'
tRp2532
(dp2533
g30
Nsg224
Nsg225
F0
sg226
F7
sg227
I0
sg228
g212
sg229
F7
sbsg559
g2505
sg560
Nsbag9
(tRp2534
(dp2535
g12
g13
(tRp2536
(dp2537
g16
g251
(tRp2538
(dp2539
g254
F19.649999618530273
sg255
Nsbsg7
I0
sg17
g215
sg216
g22
(g23
(dp2540
g25
Nsg26
I0
sS'name'
p2541
S'intLinkToExtLinkRatio'
p2542
sg29
I1
sg30
Nsg31
I0
sg32
g33
(tRp2543
S'0'
aS'1'
a(dbsg35
I0
sg36
I-1
stRp2544
(dp2545
g39
Nsbsg217
I0
sg218
I16
sg219
g220
(g221
S'\x02\x00\x00\x00\x00\x80\x84C\x00\x00\x80@'
tRp2546
(dp2547
g30
Nsg224
Nsg225
F0
sg226
F269
sg227
I0
sg228
g2544
sg229
F269
sbsbsg230
g231
(tRp2548
g9
(tRp2549
(dp2550
g12
g13
(tRp2551
(dp2552
g16
g251
(tRp2553
(dp2554
g254
F13.989999771118164
sg255
Nsbsg7
I0
sg17
g215
sg216
g22
(g23
(dp2555
g25
Nsg26
I0
sS'name'
p2556
S'intLinkToExtLinkRatio'
p2557
sg29
I1
sg30
Nsg31
I0
sg32
g33
(tRp2558
S'0'
aS'1'
a(dbsg35
I0
sg36
I-1
stRp2559
(dp2560
g39
Nsbsg217
I0
sg218
I16
sg219
g220
(g221
S'\x02\x00\x00\x00\x00\x80\x82C\x00\x00\x80@'
tRp2561
(dp2562
g30
Nsg224
Nsg225
F0
sg226
F265
sg227
I0
sg228
g2559
sg229
F265
sbsbsg230
g231
(tRp2563
g9
(tRp2564
(dp2565
g12
g13
(tRp2566
(dp2567
g16
g251
(tRp2568
(dp2569
g254
F6.5
sg255
Nsbsg7
I0
sg17
g215
sg216
g22
(g23
(dp2570
g25
Nsg26
I0
sS'name'
p2571
S'orgFreqWordCount'
p2572
sg29
I1
sg30
Nsg31
I0
sg32
g33
(tRp2573
S'0'
aS'1'
a(dbsg35
I0
sg36
I-1
stRp2574
(dp2575
g39
Nsbsg217
I0
sg218
I22
sg219
g220
(g221
S'\x02\x00\x00\x00\x00\x00qC\x00\x00\xa0A'
tRp2576
(dp2577
g30
Nsg224
Nsg225
F0
sg226
F261
sg227
I0
sg228
g2574
sg229
F261
sbsbsg230
g231
(tRp2578
g9
(tRp2579
(dp2580
g12
Nsg230
Nsg543
Nsg544
g545
(tRp2581
(dp2582
g548
g220
(g221
S'\x03\x00\x00\x00\x00\x00\x80?\x00\x00\x00\x00\x00\x00\x00\x00'
tRp2583
(dp2584
g30
Nsg224
Nsg225
F0
sg226
F1
sg227
I1
sg228
g212
sg229
F241
sbsg7
I1
sg216
g212
sg551
g552
(NS'\x01@\x00'
NtRp2585
sbsg554
I0
sg555
Nsg556
g220
(g221
S'\x03\x00\x00\x00\x00\x00qC\x00\x00\x00\x00\x00\x00\x00\x00'
tRp2586
(dp2587
g30
Nsg224
Nsg225
F0
sg226
F241
sg227
I0
sg228
g212
sg229
F241
sbsg559
Nsg560
Nsbag9
(tRp2588
(dp2589
g12
g13
(tRp2590
(dp2591
g16
g251
(tRp2592
(dp2593
g254
F28.5
sg255
Nsbsg7
I0
sg17
g215
sg216
g22
(g23
(dp2594
g25
Nsg26
I0
sS'name'
p2595
S'paraCount'
p2596
sg29
I1
sg30
Nsg31
I0
sg32
g33
(tRp2597
S'0'
aS'1'
a(dbsg35
I0
sg36
I-1
stRp2598
(dp2599
g39
Nsbsg217
I0
sg218
I23
sg219
g220
(g221
S'\x02\x00\x00\x00\x00\x00\x00@\x00\x00\x90A'
tRp2600
(dp2601
g30
Nsg224
Nsg225
F0
sg226
F20
sg227
I0
sg228
g2598
sg229
F20
sbsbsg230
g231
(tRp2602
g9
(tRp2603
(dp2604
g12
Nsg230
Nsg543
Nsg544
g545
(tRp2605
(dp2606
g548
g220
(g221
S'\x03\x00\x00\x00\x00\x00\x00\x00\x00\x00\x00\x00\x00\x00\x80?'
tRp2607
(dp2608
g30
Nsg224
Nsg225
F0
sg226
F1
sg227
I1
sg228
g212
sg229
F2
sbsg7
I1
sg216
g212
sg551
g552
(NS'\x01@\x02'
NtRp2609
sbsg554
I0
sg555
Nsg556
g220
(g221
S'\x03\x00\x00\x00\x00\x00\x00\x00\x00\x00\x00\x00\x00\x00\x00@'
tRp2610
(dp2611
g30
Nsg224
Nsg225
F0
sg226
F2
sg227
I0
sg228
g212
sg229
F2
sbsg559
Nsg560
Nsbag9
(tRp2612
(dp2613
g12
Nsg230
Nsg543
Nsg544
g545
(tRp2614
(dp2615
g548
g220
(g221
S'\x03\x00\x00\x00\x00\x00\x80?\x00\x00\x00\x00\x00\x00\x00\x00'
tRp2616
(dp2617
g30
Nsg224
Nsg225
F0
sg226
F1
sg227
I1
sg228
g212
sg229
F18
sbsg7
I1
sg216
g212
sg551
g552
(NS'\x01@\x00'
NtRp2618
sbsg554
I0
sg555
Nsg556
g220
(g221
S'\x03\x00\x00\x00\x00\x00\x90A\x00\x00\x00\x00\x00\x00\x00\x00'
tRp2619
(dp2620
g30
Nsg224
Nsg225
F0
sg226
F18
sg227
I0
sg228
g212
sg229
F18
sbsg559
Nsg560
Nsba(dbsg543
g33
(tRp2621
S'<=28.500'
aS'>28.500'
a(dbsg544
g545
(tRp2622
(dp2623
g548
g220
(g221
S'\x03\x00\x00\x00fff?\x00\x00\x00\x00\xcd\xcc\xcc='
tRp2624
(dp2625
g30
Nsg224
Nsg225
F0
sg226
F1
sg227
I1
sg228
g212
sg229
F20
sbsg7
I1
sg216
g212
sg551
g552
(NS'\x01@\x00'
NtRp2626
sbsg554
I0
sg555
Nsg556
g220
(g221
S'\x03\x00\x00\x00\x00\x00\x90A\x00\x00\x00\x00\x00\x00\x00@'
tRp2627
(dp2628
g30
Nsg224
Nsg225
F0
sg226
F20
sg227
I0
sg228
g212
sg229
F20
sbsg559
g2600
sg560
Nsba(dbsg543
g33
(tRp2629
S'<=6.500'
aS'>6.500'
a(dbsg544
g545
(tRp2630
(dp2631
g548
g220
(g221
S'\x03\x00\x00\x00\xcf\t~?\x00\x00\x00\x00\x85\x18\xfb;'
tRp2632
(dp2633
g30
Nsg224
Nsg225
F0
sg226
F1
sg227
I1
sg228
g212
sg229
F261
sbsg7
I1
sg216
g212
sg551
g552
(NS'\x01@\x00'
NtRp2634
sbsg554
I0
sg555
Nsg556
g220
(g221
S'\x03\x00\x00\x00\x00\x80\x81C\x00\x00\x00\x00\x00\x00\x00@'
tRp2635
(dp2636
g30
Nsg224
Nsg225
F0
sg226
F261
sg227
I0
sg228
g212
sg229
F261
sbsg559
g2576
sg560
Nsbag9
(tRp2637
(dp2638
g12
g13
(tRp2639
(dp2640
g16
g251
(tRp2641
(dp2642
g254
F117
sg255
Nsbsg7
I0
sg17
g215
sg216
g22
(g23
(dp2643
g25
Nsg26
I0
sS'name'
p2644
S'divCount'
p2645
sg29
I1
sg30
Nsg31
I0
sg32
g33
(tRp2646
S'0'
aS'1'
a(dbsg35
I0
sg36
I-1
stRp2647
(dp2648
g39
Nsbsg217
I0
sg218
I2
sg219
g220
(g221
S'\x02\x00\x00\x00\x00\x00@@\x00\x00\x80?'
tRp2649
(dp2650
g30
Nsg224
Nsg225
F0
sg226
F4
sg227
I0
sg228
g2647
sg229
F4
sbsbsg230
g231
(tRp2651
g9
(tRp2652
(dp2653
g12
Nsg230
Nsg543
Nsg544
g545
(tRp2654
(dp2655
g548
g220
(g221
S'\x03\x00\x00\x00\x00\x00\x80?\x00\x00\x00\x00\x00\x00\x00\x00'
tRp2656
(dp2657
g30
Nsg224
Nsg225
F0
sg226
F1
sg227
I1
sg228
g212
sg229
F3
sbsg7
I1
sg216
g212
sg551
g552
(NS'\x01@\x00'
NtRp2658
sbsg554
I0
sg555
Nsg556
g220
(g221
S'\x03\x00\x00\x00\x00\x00@@\x00\x00\x00\x00\x00\x00\x00\x00'
tRp2659
(dp2660
g30
Nsg224
Nsg225
F0
sg226
F3
sg227
I0
sg228
g212
sg229
F3
sbsg559
Nsg560
Nsbag9
(tRp2661
(dp2662
g12
Nsg230
Nsg543
Nsg544
g545
(tRp2663
(dp2664
g548
g220
(g221
S'\x03\x00\x00\x00\x00\x00\x00\x00\x00\x00\x00\x00\x00\x00\x80?'
tRp2665
(dp2666
g30
Nsg224
Nsg225
F0
sg226
F1
sg227
I1
sg228
g212
sg229
F1
sbsg7
I1
sg216
g212
sg551
g552
(NS'\x01@\x02'
NtRp2667
sbsg554
I0
sg555
Nsg556
g220
(g221
S'\x03\x00\x00\x00\x00\x00\x00\x00\x00\x00\x00\x00\x00\x00\x80?'
tRp2668
(dp2669
g30
Nsg224
Nsg225
F0
sg226
F1
sg227
I0
sg228
g212
sg229
F1
sbsg559
Nsg560
Nsba(dbsg543
g33
(tRp2670
S'<=117.000'
aS'>117.000'
a(dbsg544
g545
(tRp2671
(dp2672
g548
g220
(g221
S'\x03\x00\x00\x00\x00\x00@?\x00\x00\x00\x00\x00\x00\x80>'
tRp2673
(dp2674
g30
Nsg224
Nsg225
F0
sg226
F1
sg227
I1
sg228
g212
sg229
F4
sbsg7
I1
sg216
g212
sg551
g552
(NS'\x01@\x00'
NtRp2675
sbsg554
I0
sg555
Nsg556
g220
(g221
S'\x03\x00\x00\x00\x00\x00@@\x00\x00\x00\x00\x00\x00\x80?'
tRp2676
(dp2677
g30
Nsg224
Nsg225
F0
sg226
F4
sg227
I0
sg228
g212
sg229
F4
sbsg559
g2649
sg560
Nsba(dbsg543
g33
(tRp2678
S'<=13.990'
aS'>13.990'
a(dbsg544
g545
(tRp2679
(dp2680
g548
g220
(g221
S'\x03\x00\x00\x00\x15\x1a}?\x00\x00\x00\x00\xb0z9<'
tRp2681
(dp2682
g30
Nsg224
Nsg225
F0
sg226
F1
sg227
I1
sg228
g212
sg229
F265
sbsg7
I1
sg216
g212
sg551
g552
(NS'\x01@\x00'
NtRp2683
sbsg554
I0
sg555
Nsg556
g220
(g221
S'\x03\x00\x00\x00\x00\x00\x83C\x00\x00\x00\x00\x00\x00@@'
tRp2684
(dp2685
g30
Nsg224
Nsg225
F0
sg226
F265
sg227
I0
sg228
g212
sg229
F265
sbsg559
g2561
sg560
Nsbag9
(tRp2686
(dp2687
g12
g13
(tRp2688
(dp2689
g16
g251
(tRp2690
(dp2691
g254
F39.5
sg255
Nsbsg7
I0
sg17
g215
sg216
g22
(g23
(dp2692
g25
Nsg26
I0
sS'name'
p2693
S'divCount'
p2694
sg29
I1
sg30
Nsg31
I0
sg32
g33
(tRp2695
S'0'
aS'1'
a(dbsg35
I0
sg36
I-1
stRp2696
(dp2697
g39
Nsbsg217
I0
sg218
I2
sg219
g220
(g221
S'\x02\x00\x00\x00\x00\x00\x80?\x00\x00@@'
tRp2698
(dp2699
g30
Nsg224
Nsg225
F0
sg226
F4
sg227
I0
sg228
g2696
sg229
F4
sbsbsg230
g231
(tRp2700
g9
(tRp2701
(dp2702
g12
Nsg230
Nsg543
Nsg544
g545
(tRp2703
(dp2704
g548
g220
(g221
S'\x03\x00\x00\x00\x00\x00\x00\x00\x00\x00\x80?\x00\x00\x00\x00'
tRp2705
(dp2706
g30
Nsg224
Nsg225
F0
sg226
F1
sg227
I1
sg228
g212
sg229
F1
sbsg7
I1
sg216
g212
sg551
g552
(NS'\x01@\x01'
NtRp2707
sbsg554
I0
sg555
Nsg556
g220
(g221
S'\x03\x00\x00\x00\x00\x00\x00\x00\x00\x00\x80?\x00\x00\x00\x00'
tRp2708
(dp2709
g30
Nsg224
Nsg225
F0
sg226
F1
sg227
I0
sg228
g212
sg229
F1
sbsg559
Nsg560
Nsbag9
(tRp2710
(dp2711
g12
Nsg230
Nsg543
Nsg544
g545
(tRp2712
(dp2713
g548
g220
(g221
S'\x03\x00\x00\x00\x00\x00\x80?\x00\x00\x00\x00\x00\x00\x00\x00'
tRp2714
(dp2715
g30
Nsg224
Nsg225
F0
sg226
F1
sg227
I1
sg228
g212
sg229
F3
sbsg7
I1
sg216
g212
sg551
g552
(NS'\x01@\x00'
NtRp2716
sbsg554
I0
sg555
Nsg556
g220
(g221
S'\x03\x00\x00\x00\x00\x00@@\x00\x00\x00\x00\x00\x00\x00\x00'
tRp2717
(dp2718
g30
Nsg224
Nsg225
F0
sg226
F3
sg227
I0
sg228
g212
sg229
F3
sbsg559
Nsg560
Nsba(dbsg543
g33
(tRp2719
S'<=39.500'
aS'>39.500'
a(dbsg544
g545
(tRp2720
(dp2721
g548
g220
(g221
S'\x03\x00\x00\x00\x00\x00@?\x00\x00\x80>\x00\x00\x00\x00'
tRp2722
(dp2723
g30
Nsg224
Nsg225
F0
sg226
F1
sg227
I1
sg228
g212
sg229
F4
sbsg7
I1
sg216
g212
sg551
g552
(NS'\x01@\x00'
NtRp2724
sbsg554
I0
sg555
Nsg556
g220
(g221
S'\x03\x00\x00\x00\x00\x00@@\x00\x00\x80?\x00\x00\x00\x00'
tRp2725
(dp2726
g30
Nsg224
Nsg225
F0
sg226
F4
sg227
I0
sg228
g212
sg229
F4
sbsg559
g2698
sg560
Nsba(dbsg543
g33
(tRp2727
S'<=19.650'
aS'>19.650'
a(dbsg544
g545
(tRp2728
(dp2729
g548
g220
(g221
S'\x03\x00\x00\x00}1|?\xd5\xa0s;\xa0\xb86<'
tRp2730
(dp2731
g30
Nsg224
Nsg225
F0
sg226
F1
sg227
I1
sg228
g212
sg229
F269
sbsg7
I1
sg216
g212
sg551
g552
(NS'\x01@\x00'
NtRp2732
sbsg554
I0
sg555
Nsg556
g220
(g221
S'\x03\x00\x00\x00\x00\x80\x84C\x00\x00\x80?\x00\x00@@'
tRp2733
(dp2734
g30
Nsg224
Nsg225
F0
sg226
F269
sg227
I0
sg228
g212
sg229
F269
sbsg559
g2546
sg560
Nsba(dbsg543
g33
(tRp2735
S'<=0.500'
aS'>0.500'
a(dbsg544
g545
(tRp2736
(dp2737
g548
g220
(g221
S'\x03\x00\x00\x00Noz?C\x162<C\x162<'
tRp2738
(dp2739
g30
Nsg224
Nsg225
F0
sg226
F1
sg227
I1
sg228
g212
sg229
F276
sbsg7
I1
sg216
g212
sg551
g552
(NS'\x01@\x00'
NtRp2740
sbsg554
I0
sg555
Nsg556
g220
(g221
S'\x03\x00\x00\x00\x00\x00\x87C\x00\x00@@\x00\x00@@'
tRp2741
(dp2742
g30
Nsg224
Nsg225
F0
sg226
F276
sg227
I0
sg228
g212
sg229
F276
sbsg559
g2498
sg560
Nsbag9
(tRp2743
(dp2744
g12
g13
(tRp2745
(dp2746
g16
g251
(tRp2747
(dp2748
g254
F9.7150001525878906
sg255
Nsbsg7
I0
sg17
g215
sg216
g22
(g23
(dp2749
g25
Nsg26
I0
sS'name'
p2750
S'intLinkToExtLinkRatio'
p2751
sg29
I1
sg30
Nsg31
I0
sg32
g33
(tRp2752
S'0'
aS'1'
a(dbsg35
I0
sg36
I-1
stRp2753
(dp2754
g39
Nsbsg217
I0
sg218
I16
sg219
g220
(g221
S'\x02\x00\x00\x00\x00\x00\x80?\x00\x00\x80?'
tRp2755
(dp2756
g30
Nsg224
Nsg225
F0
sg226
F2
sg227
I0
sg228
g2753
sg229
F2
sbsbsg230
g231
(tRp2757
g9
(tRp2758
(dp2759
g12
Nsg230
Nsg543
Nsg544
g545
(tRp2760
(dp2761
g548
g220
(g221
S'\x03\x00\x00\x00\x00\x00\x80?\x00\x00\x00\x00\x00\x00\x00\x00'
tRp2762
(dp2763
g30
Nsg224
Nsg225
F0
sg226
F1
sg227
I1
sg228
g212
sg229
F1
sbsg7
I1
sg216
g212
sg551
g552
(NS'\x01@\x00'
NtRp2764
sbsg554
I0
sg555
Nsg556
g220
(g221
S'\x03\x00\x00\x00\x00\x00\x80?\x00\x00\x00\x00\x00\x00\x00\x00'
tRp2765
(dp2766
g30
Nsg224
Nsg225
F0
sg226
F1
sg227
I0
sg228
g212
sg229
F1
sbsg559
Nsg560
Nsbag9
(tRp2767
(dp2768
g12
Nsg230
Nsg543
Nsg544
g545
(tRp2769
(dp2770
g548
g220
(g221
S'\x03\x00\x00\x00\x00\x00\x00\x00\x00\x00\x80?\x00\x00\x00\x00'
tRp2771
(dp2772
g30
Nsg224
Nsg225
F0
sg226
F1
sg227
I1
sg228
g212
sg229
F1
sbsg7
I1
sg216
g212
sg551
g552
(NS'\x01@\x01'
NtRp2773
sbsg554
I0
sg555
Nsg556
g220
(g221
S'\x03\x00\x00\x00\x00\x00\x00\x00\x00\x00\x80?\x00\x00\x00\x00'
tRp2774
(dp2775
g30
Nsg224
Nsg225
F0
sg226
F1
sg227
I0
sg228
g212
sg229
F1
sbsg559
Nsg560
Nsba(dbsg543
g33
(tRp2776
S'<=9.715'
aS'>9.715'
a(dbsg544
g545
(tRp2777
(dp2778
g548
g220
(g221
S'\x03\x00\x00\x00\x00\x00\x00?\x00\x00\x00?\x00\x00\x00\x00'
tRp2779
(dp2780
g30
Nsg224
Nsg225
F0
sg226
F1
sg227
I1
sg228
g212
sg229
F2
sbsg7
I1
sg216
g212
sg551
g552
(NS'\x01@\x00'
NtRp2781
sbsg554
I0
sg555
Nsg556
g220
(g221
S'\x03\x00\x00\x00\x00\x00\x80?\x00\x00\x80?\x00\x00\x00\x00'
tRp2782
(dp2783
g30
Nsg224
Nsg225
F0
sg226
F2
sg227
I0
sg228
g212
sg229
F2
sbsg559
g2755
sg560
Nsba(dbsg543
g33
(tRp2784
S'FALSE'
aS'TRUE'
a(dbsg544
g545
(tRp2785
(dp2786
g548
g220
(g221
S'\x03\x00\x00\x00\xd0\x8dy?\xb3\xbdk<F\xce0<'
tRp2787
(dp2788
g30
Nsg224
Nsg225
F0
sg226
F1
sg227
I1
sg228
g212
sg229
F278
sbsg7
I1
sg216
g212
sg551
g552
(NS'\x01@\x00'
NtRp2789
sbsg554
I0
sg555
Nsg556
g220
(g221
S'\x03\x00\x00\x00\x00\x80\x87C\x00\x00\x80@\x00\x00@@'
tRp2790
(dp2791
g30
Nsg224
Nsg225
F0
sg226
F278
sg227
I0
sg228
g212
sg229
F278
sbsg559
g2483
sg560
Nsba(dbsg543
g33
(tRp2792
S'<=905.000'
aS'>905.000'
a(dbsg544
g545
(tRp2793
(dp2794
g548
g220
(g221
S'\x03\x00\x00\x00\x1b\x13i?\x16-+=>\xa1C='
tRp2795
(dp2796
g30
Nsg224
Nsg225
F0
sg226
F1
sg227
I1
sg228
g212
sg229
F335
sbsg7
I1
sg216
g212
sg551
g552
(NS'\x01@\x00'
NtRp2797
sbsg554
I0
sg555
Nsg556
g220
(g221
S'\x03\x00\x00\x00\x00\x80\x98C\x00\x00`A\x00\x00\x80A'
tRp2798
(dp2799
g30
Nsg224
Nsg225
F0
sg226
F335
sg227
I0
sg228
g212
sg229
F335
sbsg559
g2019
sg560
Nsbag9
(tRp2800
(dp2801
g12
g13
(tRp2802
(dp2803
g16
g251
(tRp2804
(dp2805
g254
F2
sg255
Nsbsg7
I0
sg17
g215
sg216
g22
(g23
(dp2806
g25
Nsg26
I0
sS'name'
p2807
S'forumFreqWordCount'
p2808
sg29
I1
sg30
Nsg31
I0
sg32
g33
(tRp2809
S'0'
aS'1'
a(dbsg35
I0
sg36
I-1
stRp2810
(dp2811
g39
Nsbsg217
I0
sg218
I4
sg219
g220
(g221
S'\x02\x00\x00\x00\x00\x00\x80@\x00\x00@@'
tRp2812
(dp2813
g30
Nsg224
Nsg225
F0
sg226
F7
sg227
I0
sg228
g2810
sg229
F7
sbsbsg230
g231
(tRp2814
g9
(tRp2815
(dp2816
g12
g13
(tRp2817
(dp2818
g16
g251
(tRp2819
(dp2820
g254
F1.5
sg255
Nsbsg7
I0
sg17
g215
sg216
g22
(g23
(dp2821
g25
Nsg26
I0
sS'name'
p2822
S'externalLinks'
p2823
sg29
I1
sg30
Nsg31
I0
sg32
g33
(tRp2824
S'0'
aS'1'
a(dbsg35
I0
sg36
I-1
stRp2825
(dp2826
g39
Nsbsg217
I0
sg218
I3
sg219
g220
(g221
S'\x02\x00\x00\x00\x00\x00\x00@\x00\x00\x00@'
tRp2827
(dp2828
g30
Nsg224
Nsg225
F0
sg226
F4
sg227
I0
sg228
g2825
sg229
F4
sbsbsg230
g231
(tRp2829
g9
(tRp2830
(dp2831
g12
Nsg230
Nsg543
Nsg544
g545
(tRp2832
(dp2833
g548
g220
(g221
S'\x03\x00\x00\x00\x00\x00\x80?\x00\x00\x00\x00\x00\x00\x00\x00'
tRp2834
(dp2835
g30
Nsg224
Nsg225
F0
sg226
F1
sg227
I1
sg228
g212
sg229
F2
sbsg7
I1
sg216
g212
sg551
g552
(NS'\x01@\x00'
NtRp2836
sbsg554
I0
sg555
Nsg556
g220
(g221
S'\x03\x00\x00\x00\x00\x00\x00@\x00\x00\x00\x00\x00\x00\x00\x00'
tRp2837
(dp2838
g30
Nsg224
Nsg225
F0
sg226
F2
sg227
I0
sg228
g212
sg229
F2
sbsg559
Nsg560
Nsbag9
(tRp2839
(dp2840
g12
Nsg230
Nsg543
Nsg544
g545
(tRp2841
(dp2842
g548
g220
(g221
S'\x03\x00\x00\x00\x00\x00\x00\x00\x00\x00\x00\x00\x00\x00\x80?'
tRp2843
(dp2844
g30
Nsg224
Nsg225
F0
sg226
F1
sg227
I1
sg228
g212
sg229
F2
sbsg7
I1
sg216
g212
sg551
g552
(NS'\x01@\x02'
NtRp2845
sbsg554
I0
sg555
Nsg556
g220
(g221
S'\x03\x00\x00\x00\x00\x00\x00\x00\x00\x00\x00\x00\x00\x00\x00@'
tRp2846
(dp2847
g30
Nsg224
Nsg225
F0
sg226
F2
sg227
I0
sg228
g212
sg229
F2
sbsg559
Nsg560
Nsba(dbsg543
g33
(tRp2848
S'<=1.500'
aS'>1.500'
a(dbsg544
g545
(tRp2849
(dp2850
g548
g220
(g221
S'\x03\x00\x00\x00\x00\x00\x00?\x00\x00\x00\x00\x00\x00\x00?'
tRp2851
(dp2852
g30
Nsg224
Nsg225
F0
sg226
F1
sg227
I1
sg228
g212
sg229
F4
sbsg7
I1
sg216
g212
sg551
g552
(NS'\x01@\x00'
NtRp2853
sbsg554
I0
sg555
Nsg556
g220
(g221
S'\x03\x00\x00\x00\x00\x00\x00@\x00\x00\x00\x00\x00\x00\x00@'
tRp2854
(dp2855
g30
Nsg224
Nsg225
F0
sg226
F4
sg227
I0
sg228
g212
sg229
F4
sbsg559
g2827
sg560
Nsbag9
(tRp2856
(dp2857
g12
Nsg230
Nsg543
Nsg544
g545
(tRp2858
(dp2859
g548
g220
(g221
S'\x03\x00\x00\x00\x00\x00\x00\x00\x00\x00\x80?\x00\x00\x00\x00'
tRp2860
(dp2861
g30
Nsg224
Nsg225
F0
sg226
F1
sg227
I1
sg228
g212
sg229
F3
sbsg7
I1
sg216
g212
sg551
g552
(NS'\x01@\x01'
NtRp2862
sbsg554
I0
sg555
Nsg556
g220
(g221
S'\x03\x00\x00\x00\x00\x00\x00\x00\x00\x00@@\x00\x00\x00\x00'
tRp2863
(dp2864
g30
Nsg224
Nsg225
F0
sg226
F3
sg227
I0
sg228
g212
sg229
F3
sbsg559
Nsg560
Nsba(dbsg543
g33
(tRp2865
S'<=2.000'
aS'>2.000'
a(dbsg544
g545
(tRp2866
(dp2867
g548
g220
(g221
S'\x03\x00\x00\x00%I\x92>\xb7m\xdb>%I\x92>'
tRp2868
(dp2869
g30
Nsg224
Nsg225
F0
sg226
F1
sg227
I1
sg228
g212
sg229
F7
sbsg7
I1
sg216
g212
sg551
g552
(NS'\x01@\x01'
NtRp2870
sbsg554
I0
sg555
Nsg556
g220
(g221
S'\x03\x00\x00\x00\x00\x00\x00@\x00\x00@@\x00\x00\x00@'
tRp2871
(dp2872
g30
Nsg224
Nsg225
F0
sg226
F7
sg227
I0
sg228
g212
sg229
F7
sbsg559
g2812
sg560
Nsba(dbsg543
g33
(tRp2873
S'<=26.500'
aS'>26.500'
a(dbsg544
g545
(tRp2874
(dp2875
g548
g220
(g221
S'\x03\x00\x00\x00\x19\xcde?3\x9aK=6\x94W='
tRp2876
(dp2877
g30
Nsg224
Nsg225
F0
sg226
F1
sg227
I1
sg228
g212
sg229
F342
sbsg7
I1
sg216
g212
sg551
g552
(NS'\x01@\x00'
NtRp2878
sbsg554
I0
sg555
Nsg556
g220
(g221
S'\x03\x00\x00\x00\x00\x80\x99C\x00\x00\x88A\x00\x00\x90A'
tRp2879
(dp2880
g30
Nsg224
Nsg225
F0
sg226
F342
sg227
I0
sg228
g212
sg229
F342
sbsg559
g2004
sg560
Nsbag9
(tRp2881
(dp2882
g12
Nsg230
Nsg543
Nsg544
g545
(tRp2883
(dp2884
g548
g220
(g221
S'\x03\x00\x00\x00\x00\x00\x00\x00\x00\x00\x00\x00\x00\x00\x80?'
tRp2885
(dp2886
g30
Nsg224
Nsg225
F0
sg226
F1
sg227
I1
sg228
g212
sg229
F1
sbsg7
I1
sg216
g212
sg551
g552
(NS'\x01@\x02'
NtRp2887
sbsg554
I0
sg555
Nsg556
g220
(g221
S'\x03\x00\x00\x00\x00\x00\x00\x00\x00\x00\x00\x00\x00\x00\x80?'
tRp2888
(dp2889
g30
Nsg224
Nsg225
F0
sg226
F1
sg227
I0
sg228
g212
sg229
F1
sbsg559
Nsg560
Nsba(dbsg543
g33
(tRp2890
S'<=22.000'
aS'>22.000'
a(dbsg544
g545
(tRp2891
(dp2892
g548
g220
(g221
S'\x03\x00\x00\x00\x96!e?=\x02K=c\xe4b='
tRp2893
(dp2894
g30
Nsg224
Nsg225
F0
sg226
F1
sg227
I1
sg228
g212
sg229
F343
sbsg7
I1
sg216
g212
sg551
g552
(NS'\x01@\x00'
NtRp2895
sbsg554
I0
sg555
Nsg556
g220
(g221
S'\x03\x00\x00\x00\x00\x80\x99C\x00\x00\x88A\x00\x00\x98A'
tRp2896
(dp2897
g30
Nsg224
Nsg225
F0
sg226
F343
sg227
I0
sg228
g212
sg229
F343
sbsg559
g1989
sg560
Nsbag9
(tRp2898
(dp2899
g12
g13
(tRp2900
(dp2901
g16
g251
(tRp2902
(dp2903
g254
F27.5
sg255
Nsbsg7
I0
sg17
g215
sg216
g22
(g23
(dp2904
g25
Nsg26
I0
sS'name'
p2905
S'tableCount'
p2906
sg29
I1
sg30
Nsg31
I0
sg32
g33
(tRp2907
S'0'
aS'1'
a(dbsg35
I0
sg36
I-1
stRp2908
(dp2909
g39
Nsbsg217
I0
sg218
I27
sg219
g220
(g221
S'\x02\x00\x00\x00\x00\x00 A\x00\x00@@'
tRp2910
(dp2911
g30
Nsg224
Nsg225
F0
sg226
F13
sg227
I0
sg228
g2908
sg229
F13
sbsbsg230
g231
(tRp2912
g9
(tRp2913
(dp2914
g12
g13
(tRp2915
(dp2916
g16
g251
(tRp2917
(dp2918
g254
F40.5
sg255
Nsbsg7
I0
sg17
g215
sg216
g22
(g23
(dp2919
g25
Nsg26
I0
sS'name'
p2920
S'imgCount'
p2921
sg29
I1
sg30
Nsg31
I0
sg32
g33
(tRp2922
S'0'
aS'1'
a(dbsg35
I0
sg36
I-1
stRp2923
(dp2924
g39
Nsbsg217
I0
sg218
I14
sg219
g220
(g221
S'\x02\x00\x00\x00\x00\x00\x00@\x00\x00\x00A'
tRp2925
(dp2926
g30
Nsg224
Nsg225
F0
sg226
F10
sg227
I0
sg228
g2923
sg229
F10
sbsbsg230
g231
(tRp2927
g9
(tRp2928
(dp2929
g12
Nsg230
Nsg543
Nsg544
g545
(tRp2930
(dp2931
g548
g220
(g221
S'\x03\x00\x00\x00\x00\x00\x80?\x00\x00\x00\x00\x00\x00\x00\x00'
tRp2932
(dp2933
g30
Nsg224
Nsg225
F0
sg226
F1
sg227
I1
sg228
g212
sg229
F2
sbsg7
I1
sg216
g212
sg551
g552
(NS'\x01@\x00'
NtRp2934
sbsg554
I0
sg555
Nsg556
g220
(g221
S'\x03\x00\x00\x00\x00\x00\x00@\x00\x00\x00\x00\x00\x00\x00\x00'
tRp2935
(dp2936
g30
Nsg224
Nsg225
F0
sg226
F2
sg227
I0
sg228
g212
sg229
F2
sbsg559
Nsg560
Nsbag9
(tRp2937
(dp2938
g12
Nsg230
Nsg543
Nsg544
g545
(tRp2939
(dp2940
g548
g220
(g221
S'\x03\x00\x00\x00\x00\x00\x00\x00\x00\x00\x80?\x00\x00\x00\x00'
tRp2941
(dp2942
g30
Nsg224
Nsg225
F0
sg226
F1
sg227
I1
sg228
g212
sg229
F8
sbsg7
I1
sg216
g212
sg551
g552
(NS'\x01@\x01'
NtRp2943
sbsg554
I0
sg555
Nsg556
g220
(g221
S'\x03\x00\x00\x00\x00\x00\x00\x00\x00\x00\x00A\x00\x00\x00\x00'
tRp2944
(dp2945
g30
Nsg224
Nsg225
F0
sg226
F8
sg227
I0
sg228
g212
sg229
F8
sbsg559
Nsg560
Nsba(dbsg543
g33
(tRp2946
S'<=40.500'
aS'>40.500'
a(dbsg544
g545
(tRp2947
(dp2948
g548
g220
(g221
S'\x03\x00\x00\x00\xcd\xccL>\xcd\xccL?\x00\x00\x00\x00'
tRp2949
(dp2950
g30
Nsg224
Nsg225
F0
sg226
F1
sg227
I1
sg228
g212
sg229
F10
sbsg7
I1
sg216
g212
sg551
g552
(NS'\x01@\x01'
NtRp2951
sbsg554
I0
sg555
Nsg556
g220
(g221
S'\x03\x00\x00\x00\x00\x00\x00@\x00\x00\x00A\x00\x00\x00\x00'
tRp2952
(dp2953
g30
Nsg224
Nsg225
F0
sg226
F10
sg227
I0
sg228
g212
sg229
F10
sbsg559
g2925
sg560
Nsbag9
(tRp2954
(dp2955
g12
Nsg230
Nsg543
Nsg544
g545
(tRp2956
(dp2957
g548
g220
(g221
S'\x03\x00\x00\x00\x00\x00\x80?\x00\x00\x00\x00\x00\x00\x00\x00'
tRp2958
(dp2959
g30
Nsg224
Nsg225
F0
sg226
F1
sg227
I1
sg228
g212
sg229
F3
sbsg7
I1
sg216
g212
sg551
g552
(NS'\x01@\x00'
NtRp2960
sbsg554
I0
sg555
Nsg556
g220
(g221
S'\x03\x00\x00\x00\x00\x00@@\x00\x00\x00\x00\x00\x00\x00\x00'
tRp2961
(dp2962
g30
Nsg224
Nsg225
F0
sg226
F3
sg227
I0
sg228
g212
sg229
F3
sbsg559
Nsg560
Nsba(dbsg543
g33
(tRp2963
S'<=27.500'
aS'>27.500'
a(dbsg544
g545
(tRp2964
(dp2965
g548
g220
(g221
S'\x03\x00\x00\x00O\xec\xc4>\xd9\x89\x1d?\x00\x00\x00\x00'
tRp2966
(dp2967
g30
Nsg224
Nsg225
F0
sg226
F1
sg227
I1
sg228
g212
sg229
F13
sbsg7
I1
sg216
g212
sg551
g552
(NS'\x01@\x01'
NtRp2968
sbsg554
I0
sg555
Nsg556
g220
(g221
S'\x03\x00\x00\x00\x00\x00\xa0@\x00\x00\x00A\x00\x00\x00\x00'
tRp2969
(dp2970
g30
Nsg224
Nsg225
F0
sg226
F13
sg227
I0
sg228
g212
sg229
F13
sbsg559
g2910
sg560
Nsba(dbsg543
g33
(tRp2971
S'<=49.000'
aS'>49.000'
a(dbsg544
g545
(tRp2972
(dp2973
g548
g220
(g221
S'\x03\x00\x00\x00\x0c\\`?\xfa\xd1\x8f=S\x9bZ='
tRp2974
(dp2975
g30
Nsg224
Nsg225
F0
sg226
F1
sg227
I1
sg228
g212
sg229
F356
sbsg7
I1
sg216
g212
sg551
g552
(NS'\x01@\x00'
NtRp2976
sbsg554
I0
sg555
Nsg556
g220
(g221
S'\x03\x00\x00\x00\x00\x00\x9cC\x00\x00\xc8A\x00\x00\x98A'
tRp2977
(dp2978
g30
Nsg224
Nsg225
F0
sg226
F356
sg227
I0
sg228
g212
sg229
F356
sbsg559
g1974
sg560
Nsba(dbsg543
g33
(tRp2979
S'<=0.500'
aS'>0.500'
a(dbsg544
g545
(tRp2980
(dp2981
g548
g220
(g221
S'\x03\x00\x00\x00,\x1b_?\xc8\xbc\x94=\xaa\xd3d='
tRp2982
(dp2983
g30
Nsg224
Nsg225
F0
sg226
F1
sg227
I1
sg228
g212
sg229
F358
sbsg7
I1
sg216
g212
sg551
g552
(NS'\x01@\x00'
NtRp2984
sbsg554
I0
sg555
Nsg556
g220
(g221
S'\x03\x00\x00\x00\x00\x00\x9cC\x00\x00\xd0A\x00\x00\xa0A'
tRp2985
(dp2986
g30
Nsg224
Nsg225
F0
sg226
F358
sg227
I0
sg228
g212
sg229
F358
sbsg559
g1918
sg560
Nsbag9
(tRp2987
(dp2988
g12
Nsg230
Nsg543
Nsg544
g545
(tRp2989
(dp2990
g548
g220
(g221
S'\x03\x00\x00\x00\x00\x00\x00\x00\x00\x00\x80?\x00\x00\x00\x00'
tRp2991
(dp2992
g30
Nsg224
Nsg225
F0
sg226
F1
sg227
I1
sg228
g212
sg229
F1
sbsg7
I1
sg216
g212
sg551
g552
(NS'\x01@\x01'
NtRp2993
sbsg554
I0
sg555
Nsg556
g220
(g221
S'\x03\x00\x00\x00\x00\x00\x00\x00\x00\x00\x80?\x00\x00\x00\x00'
tRp2994
(dp2995
g30
Nsg224
Nsg225
F0
sg226
F1
sg227
I0
sg228
g212
sg229
F1
sbsg559
Nsg560
Nsba(dbsg543
g33
(tRp2996
S'<=47.000'
aS'>47.000'
a(dbsg544
g545
(tRp2997
(dp2998
g548
g220
(g221
S'\x03\x00\x00\x00\x14|^?"\x07\x9a=~0d='
tRp2999
(dp3000
g30
Nsg224
Nsg225
F0
sg226
F1
sg227
I1
sg228
g212
sg229
F359
sbsg7
I1
sg216
g212
sg551
g552
(NS'\x01@\x00'
NtRp3001
sbsg554
I0
sg555
Nsg556
g220
(g221
S'\x03\x00\x00\x00\x00\x00\x9cC\x00\x00\xd8A\x00\x00\xa0A'
tRp3002
(dp3003
g30
Nsg224
Nsg225
F0
sg226
F359
sg227
I0
sg228
g212
sg229
F359
sbsg559
g1903
sg560
Nsbag9
(tRp3004
(dp3005
g12
Nsg230
Nsg543
Nsg544
g545
(tRp3006
(dp3007
g548
g220
(g221
S'\x03\x00\x00\x00\x00\x00\x00\x00\x00\x00\x80?\x00\x00\x00\x00'
tRp3008
(dp3009
g30
Nsg224
Nsg225
F0
sg226
F1
sg227
I1
sg228
g212
sg229
F1
sbsg7
I1
sg216
g212
sg551
g552
(NS'\x01@\x01'
NtRp3010
sbsg554
I0
sg555
Nsg556
g220
(g221
S'\x03\x00\x00\x00\x00\x00\x00\x00\x00\x00\x80?\x00\x00\x00\x00'
tRp3011
(dp3012
g30
Nsg224
Nsg225
F0
sg226
F1
sg227
I0
sg228
g212
sg229
F1
sbsg559
Nsg560
Nsba(dbsg543
g33
(tRp3013
S'<=199.500'
aS'>199.500'
a(dbsg544
g545
(tRp3014
(dp3015
g548
g220
(g221
S'\x03\x00\x00\x00\xde\xdd]?\xf5I\x9f=9\x8ec='
tRp3016
(dp3017
g30
Nsg224
Nsg225
F0
sg226
F1
sg227
I1
sg228
g212
sg229
F360
sbsg7
I1
sg216
g212
sg551
g552
(NS'\x01@\x00'
NtRp3018
sbsg554
I0
sg555
Nsg556
g220
(g221
S'\x03\x00\x00\x00\x00\x00\x9cC\x00\x00\xe0A\x00\x00\xa0A'
tRp3019
(dp3020
g30
Nsg224
Nsg225
F0
sg226
F360
sg227
I0
sg228
g212
sg229
F360
sbsg559
g1888
sg560
Nsbag9
(tRp3021
(dp3022
g12
Nsg230
Nsg543
Nsg544
g545
(tRp3023
(dp3024
g548
g220
(g221
S'\x03\x00\x00\x00\x00\x00\x00\x00\x00\x00\x80?\x00\x00\x00\x00'
tRp3025
(dp3026
g30
Nsg224
Nsg225
F0
sg226
F1
sg227
I1
sg228
g212
sg229
F1
sbsg7
I1
sg216
g212
sg551
g552
(NS'\x01@\x01'
NtRp3027
sbsg554
I0
sg555
Nsg556
g220
(g221
S'\x03\x00\x00\x00\x00\x00\x00\x00\x00\x00\x80?\x00\x00\x00\x00'
tRp3028
(dp3029
g30
Nsg224
Nsg225
F0
sg226
F1
sg227
I0
sg228
g212
sg229
F1
sbsg559
Nsg560
Nsba(dbsg543
g33
(tRp3030
S'<=54.000'
aS'>54.000'
a(dbsg544
g545
(tRp3031
(dp3032
g548
g220
(g221
S'\x03\x00\x00\x00\x88@]?R\x85\xa4=\xda\xecb='
tRp3033
(dp3034
g30
Nsg224
Nsg225
F0
sg226
F1
sg227
I1
sg228
g212
sg229
F361
sbsg7
I1
sg216
g212
sg551
g552
(NS'\x01@\x00'
NtRp3035
sbsg554
I0
sg555
Nsg556
g220
(g221
S'\x03\x00\x00\x00\x00\x00\x9cC\x00\x00\xe8A\x00\x00\xa0A'
tRp3036
(dp3037
g30
Nsg224
Nsg225
F0
sg226
F361
sg227
I0
sg228
g212
sg229
F361
sbsg559
g1873
sg560
Nsbag9
(tRp3038
(dp3039
g12
Nsg230
Nsg543
Nsg544
g545
(tRp3040
(dp3041
g548
g220
(g221
S'\x03\x00\x00\x00\x00\x00\x00\x00\x00\x00\x80?\x00\x00\x00\x00'
tRp3042
(dp3043
g30
Nsg224
Nsg225
F0
sg226
F1
sg227
I1
sg228
g212
sg229
F2
sbsg7
I1
sg216
g212
sg551
g552
(NS'\x01@\x01'
NtRp3044
sbsg554
I0
sg555
Nsg556
g220
(g221
S'\x03\x00\x00\x00\x00\x00\x00\x00\x00\x00\x00@\x00\x00\x00\x00'
tRp3045
(dp3046
g30
Nsg224
Nsg225
F0
sg226
F2
sg227
I0
sg228
g212
sg229
F2
sbsg559
Nsg560
Nsba(dbsg543
g33
(tRp3047
S'<=1439.750'
aS'>1439.750'
a(dbsg544
g545
(tRp3048
(dp3049
g548
g220
(g221
S'\x03\x00\x00\x00v\x08\\?\xe8\xe5\xae=\xc8\xaca='
tRp3050
(dp3051
g30
Nsg224
Nsg225
F0
sg226
F1
sg227
I1
sg228
g212
sg229
F363
sbsg7
I1
sg216
g212
sg551
g552
(NS'\x01@\x00'
NtRp3052
sbsg554
I0
sg555
Nsg556
g220
(g221
S'\x03\x00\x00\x00\x00\x00\x9cC\x00\x00\xf8A\x00\x00\xa0A'
tRp3053
(dp3054
g30
Nsg224
Nsg225
F0
sg226
F363
sg227
I0
sg228
g212
sg229
F363
sbsg559
g1858
sg560
Nsbag9
(tRp3055
(dp3056
g12
Nsg230
Nsg543
Nsg544
g545
(tRp3057
(dp3058
g548
g220
(g221
S'\x03\x00\x00\x00\x00\x00\x00\x00\x00\x00\x00\x00\x00\x00\x80?'
tRp3059
(dp3060
g30
Nsg224
Nsg225
F0
sg226
F1
sg227
I1
sg228
g212
sg229
F1
sbsg7
I1
sg216
g212
sg551
g552
(NS'\x01@\x02'
NtRp3061
sbsg554
I0
sg555
Nsg556
g220
(g221
S'\x03\x00\x00\x00\x00\x00\x00\x00\x00\x00\x00\x00\x00\x00\x80?'
tRp3062
(dp3063
g30
Nsg224
Nsg225
F0
sg226
F1
sg227
I0
sg228
g212
sg229
F1
sbsg559
Nsg560
Nsba(dbsg543
g33
(tRp3064
S'<=134.000'
aS'>134.000'
a(dbsg544
g545
(tRp3065
(dp3066
g548
g220
(g221
S'\x03\x00\x00\x00\xb7m[?\xe7j\xae=\xc5Nl='
tRp3067
(dp3068
g30
Nsg224
Nsg225
F0
sg226
F1
sg227
I1
sg228
g212
sg229
F364
sbsg7
I1
sg216
g212
sg551
g552
(NS'\x01@\x00'
NtRp3069
sbsg554
I0
sg555
Nsg556
g220
(g221
S'\x03\x00\x00\x00\x00\x00\x9cC\x00\x00\xf8A\x00\x00\xa8A'
tRp3070
(dp3071
g30
Nsg224
Nsg225
F0
sg226
F364
sg227
I0
sg228
g212
sg229
F364
sbsg559
g1843
sg560
Nsba(dbsg543
g33
(tRp3072
S'FALSE'
aS'TRUE'
a(dbsg544
g545
(tRp3073
(dp3074
g548
g220
(g221
S'\x03\x00\x00\x00\xa4\xd3\x05?\x9ec\x9f=\xd0\x7f\xcc>'
tRp3075
(dp3076
g30
Nsg224
Nsg225
F0
sg226
F1
sg227
I1
sg228
g212
sg229
F681
sbsg7
I1
sg216
g212
sg551
g552
(NS'\x01@\x00'
NtRp3077
sbsg554
I0
sg555
Nsg556
g220
(g221
S'\x03\x00\x00\x00\x00\x00\xb2C\x00\x00TB\x00\x00\x88C'
tRp3078
(dp3079
g30
Nsg224
Nsg225
F0
sg226
F681
sg227
I0
sg228
g212
sg229
F681
sbsg559
g237
sg560
Nsbag9
(tRp3080
(dp3081
g12
Nsg230
Nsg543
Nsg544
g545
(tRp3082
(dp3083
g548
g220
(g221
S'\x03\x00\x00\x00\x00\x00\x00\x00\x00\x00\x80?\x00\x00\x00\x00'
tRp3084
(dp3085
g30
Nsg224
Nsg225
F0
sg226
F1
sg227
I1
sg228
g212
sg229
F178
sbsg7
I1
sg216
g212
sg551
g552
(NS'\x01@\x01'
NtRp3086
sbsg554
I0
sg555
Nsg556
g220
(g221
S'\x03\x00\x00\x00\x00\x00\x00\x00\x00\x002C\x00\x00\x00\x00'
tRp3087
(dp3088
g30
Nsg224
Nsg225
F0
sg226
F178
sg227
I0
sg228
g212
sg229
F178
sbsg559
Nsg560
Nsba(dbsg543
g33
(tRp3089
S'FALSE'
aS'TRUE'
a(dbsg544
g545
(tRp3090
(dp3091
g548
g220
(g221
S'\x03\x00\x00\x00\xe00\xd4>\x89\xaf\x89>\x97\x1f\xa2>'
tRp3092
(dp3093
g30
Nsg224
Nsg225
F0
sg226
F1
sg227
I1
sg228
g212
sg229
F859
sbsg7
I1
sg216
g212
sg551
g552
(NS'\x01@\x00'
NtRp3094
sbsg554
I0
sg555
Nsg556
g220
(g221
S'\x03\x00\x00\x00\x00\x00\xb2C\x00\x00gC\x00\x00\x88C'
tRp3095
(dp3096
g30
Nsg224
Nsg225
F0
sg226
F859
sg227
I0
sg228
g212
sg229
F859
sbsg559
g222
sg560
NsbsS'domain'
p3097
g215
sS'nativeClassifier'
p3098
cOrange.classification.tree
_TreeClassifier
p3099
(tRp3100
(dp3101
g7
I0
sS'descender'
p3102
g6
sg216
g212
sS'tree'
p3103
g10
sg17
g215
sbsg216
g212
sb.